
ekf.o:     file format elf32-littlearm


Disassembly of section .text:

00000000 <StateEq.clone.1>:
       0:	e92d 4ff0 	stmdb	sp!, {r4, r5, r6, r7, r8, r9, sl, fp, lr}
       4:	4da8      	ldr	r5, [pc, #672]	; (2a8 <StateEq.clone.1+0x2a8>)
       6:	b08f      	sub	sp, #60	; 0x3c
       8:	460c      	mov	r4, r1
       a:	4682      	mov	sl, r0
       c:	6aa9      	ldr	r1, [r5, #40]	; 0x28
       e:	6800      	ldr	r0, [r0, #0]
      10:	f7ff fffe 	bl	0 <__aeabi_fsub>
      14:	6ae9      	ldr	r1, [r5, #44]	; 0x2c
      16:	4683      	mov	fp, r0
      18:	f8da 0004 	ldr.w	r0, [sl, #4]
      1c:	f7ff fffe 	bl	0 <__aeabi_fsub>
      20:	6b29      	ldr	r1, [r5, #48]	; 0x30
      22:	9003      	str	r0, [sp, #12]
      24:	f8da 0008 	ldr.w	r0, [sl, #8]
      28:	f7ff fffe 	bl	0 <__aeabi_fsub>
      2c:	f8da 200c 	ldr.w	r2, [sl, #12]
      30:	68eb      	ldr	r3, [r5, #12]
      32:	9004      	str	r0, [sp, #16]
      34:	f8da 0010 	ldr.w	r0, [sl, #16]
      38:	f8da a014 	ldr.w	sl, [sl, #20]
      3c:	9205      	str	r2, [sp, #20]
      3e:	69ae      	ldr	r6, [r5, #24]
      40:	69ef      	ldr	r7, [r5, #28]
      42:	f8d5 8020 	ldr.w	r8, [r5, #32]
      46:	f8d5 9024 	ldr.w	r9, [r5, #36]	; 0x24
      4a:	9006      	str	r0, [sp, #24]
      4c:	f8cd a01c 	str.w	sl, [sp, #28]
      50:	6023      	str	r3, [r4, #0]
      52:	6929      	ldr	r1, [r5, #16]
      54:	4630      	mov	r0, r6
      56:	6061      	str	r1, [r4, #4]
      58:	f8d5 c014 	ldr.w	ip, [r5, #20]
      5c:	4631      	mov	r1, r6
      5e:	f8c4 c008 	str.w	ip, [r4, #8]
      62:	f7ff fffe 	bl	0 <__aeabi_fmul>
      66:	4639      	mov	r1, r7
      68:	9002      	str	r0, [sp, #8]
      6a:	4638      	mov	r0, r7
      6c:	f7ff fffe 	bl	0 <__aeabi_fmul>
      70:	4641      	mov	r1, r8
      72:	4682      	mov	sl, r0
      74:	4640      	mov	r0, r8
      76:	f7ff fffe 	bl	0 <__aeabi_fmul>
      7a:	4649      	mov	r1, r9
      7c:	4605      	mov	r5, r0
      7e:	4648      	mov	r0, r9
      80:	f7ff fffe 	bl	0 <__aeabi_fmul>
      84:	4641      	mov	r1, r8
      86:	9008      	str	r0, [sp, #32]
      88:	4638      	mov	r0, r7
      8a:	f7ff fffe 	bl	0 <__aeabi_fmul>
      8e:	4649      	mov	r1, r9
      90:	9009      	str	r0, [sp, #36]	; 0x24
      92:	4630      	mov	r0, r6
      94:	f7ff fffe 	bl	0 <__aeabi_fmul>
      98:	4649      	mov	r1, r9
      9a:	900a      	str	r0, [sp, #40]	; 0x28
      9c:	4638      	mov	r0, r7
      9e:	f7ff fffe 	bl	0 <__aeabi_fmul>
      a2:	4641      	mov	r1, r8
      a4:	900b      	str	r0, [sp, #44]	; 0x2c
      a6:	4630      	mov	r0, r6
      a8:	f7ff fffe 	bl	0 <__aeabi_fmul>
      ac:	4651      	mov	r1, sl
      ae:	900c      	str	r0, [sp, #48]	; 0x30
      b0:	9802      	ldr	r0, [sp, #8]
      b2:	f7ff fffe 	bl	0 <__aeabi_fadd>
      b6:	4629      	mov	r1, r5
      b8:	f7ff fffe 	bl	0 <__aeabi_fsub>
      bc:	9908      	ldr	r1, [sp, #32]
      be:	f7ff fffe 	bl	0 <__aeabi_fsub>
      c2:	4601      	mov	r1, r0
      c4:	9805      	ldr	r0, [sp, #20]
      c6:	f7ff fffe 	bl	0 <__aeabi_fmul>
      ca:	990a      	ldr	r1, [sp, #40]	; 0x28
      cc:	4602      	mov	r2, r0
      ce:	9809      	ldr	r0, [sp, #36]	; 0x24
      d0:	9201      	str	r2, [sp, #4]
      d2:	f7ff fffe 	bl	0 <__aeabi_fsub>
      d6:	4601      	mov	r1, r0
      d8:	f7ff fffe 	bl	0 <__aeabi_fadd>
      dc:	4601      	mov	r1, r0
      de:	9806      	ldr	r0, [sp, #24]
      e0:	f7ff fffe 	bl	0 <__aeabi_fmul>
      e4:	4601      	mov	r1, r0
      e6:	9801      	ldr	r0, [sp, #4]
      e8:	f7ff fffe 	bl	0 <__aeabi_fadd>
      ec:	990c      	ldr	r1, [sp, #48]	; 0x30
      ee:	4603      	mov	r3, r0
      f0:	980b      	ldr	r0, [sp, #44]	; 0x2c
      f2:	9301      	str	r3, [sp, #4]
      f4:	f7ff fffe 	bl	0 <__aeabi_fadd>
      f8:	4601      	mov	r1, r0
      fa:	f7ff fffe 	bl	0 <__aeabi_fadd>
      fe:	4601      	mov	r1, r0
     100:	9807      	ldr	r0, [sp, #28]
     102:	f7ff fffe 	bl	0 <__aeabi_fmul>
     106:	9a01      	ldr	r2, [sp, #4]
     108:	4601      	mov	r1, r0
     10a:	4610      	mov	r0, r2
     10c:	f7ff fffe 	bl	0 <__aeabi_fadd>
     110:	4651      	mov	r1, sl
     112:	60e0      	str	r0, [r4, #12]
     114:	9802      	ldr	r0, [sp, #8]
     116:	f7ff fffe 	bl	0 <__aeabi_fsub>
     11a:	4649      	mov	r1, r9
     11c:	9002      	str	r0, [sp, #8]
     11e:	4640      	mov	r0, r8
     120:	f7ff fffe 	bl	0 <__aeabi_fmul>
     124:	4639      	mov	r1, r7
     126:	4682      	mov	sl, r0
     128:	4630      	mov	r0, r6
     12a:	f7ff fffe 	bl	0 <__aeabi_fmul>
     12e:	990a      	ldr	r1, [sp, #40]	; 0x28
     130:	900d      	str	r0, [sp, #52]	; 0x34
     132:	9809      	ldr	r0, [sp, #36]	; 0x24
     134:	f7ff fffe 	bl	0 <__aeabi_fadd>
     138:	4601      	mov	r1, r0
     13a:	f7ff fffe 	bl	0 <__aeabi_fadd>
     13e:	4601      	mov	r1, r0
     140:	9805      	ldr	r0, [sp, #20]
     142:	f7ff fffe 	bl	0 <__aeabi_fmul>
     146:	9902      	ldr	r1, [sp, #8]
     148:	4603      	mov	r3, r0
     14a:	4628      	mov	r0, r5
     14c:	9301      	str	r3, [sp, #4]
     14e:	f7ff fffe 	bl	0 <__aeabi_fadd>
     152:	9908      	ldr	r1, [sp, #32]
     154:	f7ff fffe 	bl	0 <__aeabi_fsub>
     158:	4601      	mov	r1, r0
     15a:	9806      	ldr	r0, [sp, #24]
     15c:	f7ff fffe 	bl	0 <__aeabi_fmul>
     160:	4601      	mov	r1, r0
     162:	9801      	ldr	r0, [sp, #4]
     164:	f7ff fffe 	bl	0 <__aeabi_fadd>
     168:	990d      	ldr	r1, [sp, #52]	; 0x34
     16a:	4602      	mov	r2, r0
     16c:	4650      	mov	r0, sl
     16e:	9201      	str	r2, [sp, #4]
     170:	f7ff fffe 	bl	0 <__aeabi_fsub>
     174:	4601      	mov	r1, r0
     176:	f7ff fffe 	bl	0 <__aeabi_fadd>
     17a:	4601      	mov	r1, r0
     17c:	9807      	ldr	r0, [sp, #28]
     17e:	f7ff fffe 	bl	0 <__aeabi_fmul>
     182:	9b01      	ldr	r3, [sp, #4]
     184:	4601      	mov	r1, r0
     186:	4618      	mov	r0, r3
     188:	f7ff fffe 	bl	0 <__aeabi_fadd>
     18c:	990c      	ldr	r1, [sp, #48]	; 0x30
     18e:	6120      	str	r0, [r4, #16]
     190:	980b      	ldr	r0, [sp, #44]	; 0x2c
     192:	f7ff fffe 	bl	0 <__aeabi_fsub>
     196:	4601      	mov	r1, r0
     198:	f7ff fffe 	bl	0 <__aeabi_fadd>
     19c:	4601      	mov	r1, r0
     19e:	9805      	ldr	r0, [sp, #20]
     1a0:	f7ff fffe 	bl	0 <__aeabi_fmul>
     1a4:	990d      	ldr	r1, [sp, #52]	; 0x34
     1a6:	4602      	mov	r2, r0
     1a8:	4650      	mov	r0, sl
     1aa:	9201      	str	r2, [sp, #4]
     1ac:	f7ff fffe 	bl	0 <__aeabi_fadd>
     1b0:	4601      	mov	r1, r0
     1b2:	f7ff fffe 	bl	0 <__aeabi_fadd>
     1b6:	4601      	mov	r1, r0
     1b8:	9806      	ldr	r0, [sp, #24]
     1ba:	f7ff fffe 	bl	0 <__aeabi_fmul>
     1be:	4601      	mov	r1, r0
     1c0:	9801      	ldr	r0, [sp, #4]
     1c2:	f7ff fffe 	bl	0 <__aeabi_fadd>
     1c6:	4629      	mov	r1, r5
     1c8:	4682      	mov	sl, r0
     1ca:	9802      	ldr	r0, [sp, #8]
     1cc:	f7ff fffe 	bl	0 <__aeabi_fsub>
     1d0:	4601      	mov	r1, r0
     1d2:	9808      	ldr	r0, [sp, #32]
     1d4:	f7ff fffe 	bl	0 <__aeabi_fadd>
     1d8:	4601      	mov	r1, r0
     1da:	9807      	ldr	r0, [sp, #28]
     1dc:	f7ff fffe 	bl	0 <__aeabi_fmul>
     1e0:	4601      	mov	r1, r0
     1e2:	4650      	mov	r0, sl
     1e4:	f7ff fffe 	bl	0 <__aeabi_fadd>
     1e8:	4930      	ldr	r1, [pc, #192]	; (2ac <StateEq.clone.1+0x2ac>)
     1ea:	6809      	ldr	r1, [r1, #0]
     1ec:	f7ff fffe 	bl	0 <__aeabi_fadd>
     1f0:	f107 4100 	add.w	r1, r7, #2147483648	; 0x80000000
     1f4:	6160      	str	r0, [r4, #20]
     1f6:	4658      	mov	r0, fp
     1f8:	f7ff fffe 	bl	0 <__aeabi_fmul>
     1fc:	4641      	mov	r1, r8
     1fe:	4605      	mov	r5, r0
     200:	9803      	ldr	r0, [sp, #12]
     202:	f7ff fffe 	bl	0 <__aeabi_fmul>
     206:	4601      	mov	r1, r0
     208:	4628      	mov	r0, r5
     20a:	f7ff fffe 	bl	0 <__aeabi_fsub>
     20e:	4649      	mov	r1, r9
     210:	4605      	mov	r5, r0
     212:	9804      	ldr	r0, [sp, #16]
     214:	f7ff fffe 	bl	0 <__aeabi_fmul>
     218:	4601      	mov	r1, r0
     21a:	4628      	mov	r0, r5
     21c:	f7ff fffe 	bl	0 <__aeabi_fsub>
     220:	f04f 517c 	mov.w	r1, #1056964608	; 0x3f000000
     224:	f7ff fffe 	bl	0 <__aeabi_fmul>
     228:	4631      	mov	r1, r6
     22a:	61a0      	str	r0, [r4, #24]
     22c:	4658      	mov	r0, fp
     22e:	f7ff fffe 	bl	0 <__aeabi_fmul>
     232:	4649      	mov	r1, r9
     234:	4605      	mov	r5, r0
     236:	9803      	ldr	r0, [sp, #12]
     238:	f7ff fffe 	bl	0 <__aeabi_fmul>
     23c:	4601      	mov	r1, r0
     23e:	4628      	mov	r0, r5
     240:	f7ff fffe 	bl	0 <__aeabi_fsub>
     244:	4641      	mov	r1, r8
     246:	4605      	mov	r5, r0
     248:	9804      	ldr	r0, [sp, #16]
     24a:	f7ff fffe 	bl	0 <__aeabi_fmul>
     24e:	4601      	mov	r1, r0
     250:	4628      	mov	r0, r5
     252:	f7ff fffe 	bl	0 <__aeabi_fadd>
     256:	f04f 517c 	mov.w	r1, #1056964608	; 0x3f000000
     25a:	f7ff fffe 	bl	0 <__aeabi_fmul>
     25e:	4649      	mov	r1, r9
     260:	61e0      	str	r0, [r4, #28]
     262:	4658      	mov	r0, fp
     264:	f7ff fffe 	bl	0 <__aeabi_fmul>
     268:	4631      	mov	r1, r6
     26a:	4605      	mov	r5, r0
     26c:	9803      	ldr	r0, [sp, #12]
     26e:	f7ff fffe 	bl	0 <__aeabi_fmul>
     272:	4601      	mov	r1, r0
     274:	4628      	mov	r0, r5
     276:	f7ff fffe 	bl	0 <__aeabi_fadd>
     27a:	4639      	mov	r1, r7
     27c:	4605      	mov	r5, r0
     27e:	9804      	ldr	r0, [sp, #16]
     280:	f7ff fffe 	bl	0 <__aeabi_fmul>
     284:	4601      	mov	r1, r0
     286:	4628      	mov	r0, r5
     288:	f7ff fffe 	bl	0 <__aeabi_fsub>
     28c:	f04f 517c 	mov.w	r1, #1056964608	; 0x3f000000
     290:	f7ff fffe 	bl	0 <__aeabi_fmul>
     294:	f108 4100 	add.w	r1, r8, #2147483648	; 0x80000000
     298:	6220      	str	r0, [r4, #32]
     29a:	4658      	mov	r0, fp
     29c:	f7ff fffe 	bl	0 <__aeabi_fmul>
     2a0:	4639      	mov	r1, r7
     2a2:	4605      	mov	r5, r0
     2a4:	9803      	ldr	r0, [sp, #12]
     2a6:	e003      	b.n	2b0 <StateEq.clone.1+0x2b0>
	...
     2b0:	f7ff fffe 	bl	0 <__aeabi_fmul>
     2b4:	4601      	mov	r1, r0
     2b6:	4628      	mov	r0, r5
     2b8:	f7ff fffe 	bl	0 <__aeabi_fadd>
     2bc:	4631      	mov	r1, r6
     2be:	4605      	mov	r5, r0
     2c0:	9804      	ldr	r0, [sp, #16]
     2c2:	f7ff fffe 	bl	0 <__aeabi_fmul>
     2c6:	4601      	mov	r1, r0
     2c8:	4628      	mov	r0, r5
     2ca:	f7ff fffe 	bl	0 <__aeabi_fadd>
     2ce:	f04f 517c 	mov.w	r1, #1056964608	; 0x3f000000
     2d2:	f7ff fffe 	bl	0 <__aeabi_fmul>
     2d6:	2300      	movs	r3, #0
     2d8:	6260      	str	r0, [r4, #36]	; 0x24
     2da:	6323      	str	r3, [r4, #48]	; 0x30
     2dc:	62e3      	str	r3, [r4, #44]	; 0x2c
     2de:	62a3      	str	r3, [r4, #40]	; 0x28
     2e0:	b00f      	add	sp, #60	; 0x3c
     2e2:	e8bd 8ff0 	ldmia.w	sp!, {r4, r5, r6, r7, r8, r9, sl, fp, pc}
     2e6:	bf00      	nop

000002e8 <RungeKutta.clone.0>:
     2e8:	e92d 4ff0 	stmdb	sp!, {r4, r5, r6, r7, r8, r9, sl, fp, lr}
     2ec:	460d      	mov	r5, r1
     2ee:	b0c3      	sub	sp, #268	; 0x10c
     2f0:	4607      	mov	r7, r0
     2f2:	f04f 517c 	mov.w	r1, #1056964608	; 0x3f000000
     2f6:	4628      	mov	r0, r5
     2f8:	f7ff fffe 	bl	0 <__aeabi_fmul>
     2fc:	4ca7      	ldr	r4, [pc, #668]	; (59c <RungeKutta.clone.0+0x2b4>)
     2fe:	4606      	mov	r6, r0
     300:	6963      	ldr	r3, [r4, #20]
     302:	f8d4 c008 	ldr.w	ip, [r4, #8]
     306:	f8d4 e00c 	ldr.w	lr, [r4, #12]
     30a:	6922      	ldr	r2, [r4, #16]
     30c:	9306      	str	r3, [sp, #24]
     30e:	6a23      	ldr	r3, [r4, #32]
     310:	f8d4 9000 	ldr.w	r9, [r4]
     314:	f8d4 8004 	ldr.w	r8, [r4, #4]
     318:	f8d4 a018 	ldr.w	sl, [r4, #24]
     31c:	f8d4 b01c 	ldr.w	fp, [r4, #28]
     320:	f8cd c00c 	str.w	ip, [sp, #12]
     324:	f8cd e010 	str.w	lr, [sp, #16]
     328:	f8d4 c028 	ldr.w	ip, [r4, #40]	; 0x28
     32c:	f8d4 e024 	ldr.w	lr, [r4, #36]	; 0x24
     330:	9205      	str	r2, [sp, #20]
     332:	9309      	str	r3, [sp, #36]	; 0x24
     334:	6ae2      	ldr	r2, [r4, #44]	; 0x2c
     336:	6b23      	ldr	r3, [r4, #48]	; 0x30
     338:	a935      	add	r1, sp, #212	; 0xd4
     33a:	4638      	mov	r0, r7
     33c:	f8cd e028 	str.w	lr, [sp, #40]	; 0x28
     340:	f8cd c02c 	str.w	ip, [sp, #44]	; 0x2c
     344:	920c      	str	r2, [sp, #48]	; 0x30
     346:	930d      	str	r3, [sp, #52]	; 0x34
     348:	f8cd 9004 	str.w	r9, [sp, #4]
     34c:	f8cd 8008 	str.w	r8, [sp, #8]
     350:	f8cd a01c 	str.w	sl, [sp, #28]
     354:	f8cd b020 	str.w	fp, [sp, #32]
     358:	f7ff fe52 	bl	0 <StateEq.clone.1>
     35c:	9935      	ldr	r1, [sp, #212]	; 0xd4
     35e:	4630      	mov	r0, r6
     360:	f7ff fffe 	bl	0 <__aeabi_fmul>
     364:	4601      	mov	r1, r0
     366:	9801      	ldr	r0, [sp, #4]
     368:	f7ff fffe 	bl	0 <__aeabi_fadd>
     36c:	9936      	ldr	r1, [sp, #216]	; 0xd8
     36e:	6020      	str	r0, [r4, #0]
     370:	4630      	mov	r0, r6
     372:	f7ff fffe 	bl	0 <__aeabi_fmul>
     376:	4601      	mov	r1, r0
     378:	9802      	ldr	r0, [sp, #8]
     37a:	f7ff fffe 	bl	0 <__aeabi_fadd>
     37e:	9937      	ldr	r1, [sp, #220]	; 0xdc
     380:	6060      	str	r0, [r4, #4]
     382:	4630      	mov	r0, r6
     384:	f7ff fffe 	bl	0 <__aeabi_fmul>
     388:	4601      	mov	r1, r0
     38a:	9803      	ldr	r0, [sp, #12]
     38c:	f7ff fffe 	bl	0 <__aeabi_fadd>
     390:	9938      	ldr	r1, [sp, #224]	; 0xe0
     392:	60a0      	str	r0, [r4, #8]
     394:	4630      	mov	r0, r6
     396:	f7ff fffe 	bl	0 <__aeabi_fmul>
     39a:	4601      	mov	r1, r0
     39c:	9804      	ldr	r0, [sp, #16]
     39e:	f7ff fffe 	bl	0 <__aeabi_fadd>
     3a2:	9939      	ldr	r1, [sp, #228]	; 0xe4
     3a4:	60e0      	str	r0, [r4, #12]
     3a6:	4630      	mov	r0, r6
     3a8:	f7ff fffe 	bl	0 <__aeabi_fmul>
     3ac:	4601      	mov	r1, r0
     3ae:	9805      	ldr	r0, [sp, #20]
     3b0:	f7ff fffe 	bl	0 <__aeabi_fadd>
     3b4:	993a      	ldr	r1, [sp, #232]	; 0xe8
     3b6:	6120      	str	r0, [r4, #16]
     3b8:	4630      	mov	r0, r6
     3ba:	f7ff fffe 	bl	0 <__aeabi_fmul>
     3be:	4601      	mov	r1, r0
     3c0:	9806      	ldr	r0, [sp, #24]
     3c2:	f7ff fffe 	bl	0 <__aeabi_fadd>
     3c6:	993b      	ldr	r1, [sp, #236]	; 0xec
     3c8:	6160      	str	r0, [r4, #20]
     3ca:	4630      	mov	r0, r6
     3cc:	f7ff fffe 	bl	0 <__aeabi_fmul>
     3d0:	4601      	mov	r1, r0
     3d2:	9807      	ldr	r0, [sp, #28]
     3d4:	f7ff fffe 	bl	0 <__aeabi_fadd>
     3d8:	993c      	ldr	r1, [sp, #240]	; 0xf0
     3da:	61a0      	str	r0, [r4, #24]
     3dc:	4630      	mov	r0, r6
     3de:	f7ff fffe 	bl	0 <__aeabi_fmul>
     3e2:	4601      	mov	r1, r0
     3e4:	9808      	ldr	r0, [sp, #32]
     3e6:	f7ff fffe 	bl	0 <__aeabi_fadd>
     3ea:	993d      	ldr	r1, [sp, #244]	; 0xf4
     3ec:	61e0      	str	r0, [r4, #28]
     3ee:	4630      	mov	r0, r6
     3f0:	f7ff fffe 	bl	0 <__aeabi_fmul>
     3f4:	4601      	mov	r1, r0
     3f6:	9809      	ldr	r0, [sp, #36]	; 0x24
     3f8:	f7ff fffe 	bl	0 <__aeabi_fadd>
     3fc:	993e      	ldr	r1, [sp, #248]	; 0xf8
     3fe:	6220      	str	r0, [r4, #32]
     400:	4630      	mov	r0, r6
     402:	f7ff fffe 	bl	0 <__aeabi_fmul>
     406:	4601      	mov	r1, r0
     408:	980a      	ldr	r0, [sp, #40]	; 0x28
     40a:	f7ff fffe 	bl	0 <__aeabi_fadd>
     40e:	993f      	ldr	r1, [sp, #252]	; 0xfc
     410:	6260      	str	r0, [r4, #36]	; 0x24
     412:	4630      	mov	r0, r6
     414:	f7ff fffe 	bl	0 <__aeabi_fmul>
     418:	4601      	mov	r1, r0
     41a:	980b      	ldr	r0, [sp, #44]	; 0x2c
     41c:	f7ff fffe 	bl	0 <__aeabi_fadd>
     420:	9940      	ldr	r1, [sp, #256]	; 0x100
     422:	62a0      	str	r0, [r4, #40]	; 0x28
     424:	4630      	mov	r0, r6
     426:	f7ff fffe 	bl	0 <__aeabi_fmul>
     42a:	4601      	mov	r1, r0
     42c:	980c      	ldr	r0, [sp, #48]	; 0x30
     42e:	f7ff fffe 	bl	0 <__aeabi_fadd>
     432:	9941      	ldr	r1, [sp, #260]	; 0x104
     434:	62e0      	str	r0, [r4, #44]	; 0x2c
     436:	4630      	mov	r0, r6
     438:	f7ff fffe 	bl	0 <__aeabi_fmul>
     43c:	4601      	mov	r1, r0
     43e:	980d      	ldr	r0, [sp, #52]	; 0x34
     440:	f7ff fffe 	bl	0 <__aeabi_fadd>
     444:	a928      	add	r1, sp, #160	; 0xa0
     446:	6320      	str	r0, [r4, #48]	; 0x30
     448:	4638      	mov	r0, r7
     44a:	f7ff fdd9 	bl	0 <StateEq.clone.1>
     44e:	9928      	ldr	r1, [sp, #160]	; 0xa0
     450:	4630      	mov	r0, r6
     452:	f7ff fffe 	bl	0 <__aeabi_fmul>
     456:	4601      	mov	r1, r0
     458:	9801      	ldr	r0, [sp, #4]
     45a:	f7ff fffe 	bl	0 <__aeabi_fadd>
     45e:	9929      	ldr	r1, [sp, #164]	; 0xa4
     460:	6020      	str	r0, [r4, #0]
     462:	4630      	mov	r0, r6
     464:	f7ff fffe 	bl	0 <__aeabi_fmul>
     468:	4601      	mov	r1, r0
     46a:	9802      	ldr	r0, [sp, #8]
     46c:	f7ff fffe 	bl	0 <__aeabi_fadd>
     470:	992a      	ldr	r1, [sp, #168]	; 0xa8
     472:	6060      	str	r0, [r4, #4]
     474:	4630      	mov	r0, r6
     476:	f7ff fffe 	bl	0 <__aeabi_fmul>
     47a:	4601      	mov	r1, r0
     47c:	9803      	ldr	r0, [sp, #12]
     47e:	f7ff fffe 	bl	0 <__aeabi_fadd>
     482:	992b      	ldr	r1, [sp, #172]	; 0xac
     484:	60a0      	str	r0, [r4, #8]
     486:	4630      	mov	r0, r6
     488:	f7ff fffe 	bl	0 <__aeabi_fmul>
     48c:	4601      	mov	r1, r0
     48e:	9804      	ldr	r0, [sp, #16]
     490:	f7ff fffe 	bl	0 <__aeabi_fadd>
     494:	992c      	ldr	r1, [sp, #176]	; 0xb0
     496:	60e0      	str	r0, [r4, #12]
     498:	4630      	mov	r0, r6
     49a:	f7ff fffe 	bl	0 <__aeabi_fmul>
     49e:	4601      	mov	r1, r0
     4a0:	9805      	ldr	r0, [sp, #20]
     4a2:	f7ff fffe 	bl	0 <__aeabi_fadd>
     4a6:	992d      	ldr	r1, [sp, #180]	; 0xb4
     4a8:	6120      	str	r0, [r4, #16]
     4aa:	4630      	mov	r0, r6
     4ac:	f7ff fffe 	bl	0 <__aeabi_fmul>
     4b0:	4601      	mov	r1, r0
     4b2:	9806      	ldr	r0, [sp, #24]
     4b4:	f7ff fffe 	bl	0 <__aeabi_fadd>
     4b8:	992e      	ldr	r1, [sp, #184]	; 0xb8
     4ba:	6160      	str	r0, [r4, #20]
     4bc:	4630      	mov	r0, r6
     4be:	f7ff fffe 	bl	0 <__aeabi_fmul>
     4c2:	4601      	mov	r1, r0
     4c4:	9807      	ldr	r0, [sp, #28]
     4c6:	f7ff fffe 	bl	0 <__aeabi_fadd>
     4ca:	992f      	ldr	r1, [sp, #188]	; 0xbc
     4cc:	61a0      	str	r0, [r4, #24]
     4ce:	4630      	mov	r0, r6
     4d0:	f7ff fffe 	bl	0 <__aeabi_fmul>
     4d4:	4601      	mov	r1, r0
     4d6:	9808      	ldr	r0, [sp, #32]
     4d8:	f7ff fffe 	bl	0 <__aeabi_fadd>
     4dc:	9930      	ldr	r1, [sp, #192]	; 0xc0
     4de:	61e0      	str	r0, [r4, #28]
     4e0:	4630      	mov	r0, r6
     4e2:	f7ff fffe 	bl	0 <__aeabi_fmul>
     4e6:	4601      	mov	r1, r0
     4e8:	9809      	ldr	r0, [sp, #36]	; 0x24
     4ea:	f7ff fffe 	bl	0 <__aeabi_fadd>
     4ee:	9931      	ldr	r1, [sp, #196]	; 0xc4
     4f0:	6220      	str	r0, [r4, #32]
     4f2:	4630      	mov	r0, r6
     4f4:	f7ff fffe 	bl	0 <__aeabi_fmul>
     4f8:	4601      	mov	r1, r0
     4fa:	980a      	ldr	r0, [sp, #40]	; 0x28
     4fc:	f7ff fffe 	bl	0 <__aeabi_fadd>
     500:	9932      	ldr	r1, [sp, #200]	; 0xc8
     502:	6260      	str	r0, [r4, #36]	; 0x24
     504:	4630      	mov	r0, r6
     506:	f7ff fffe 	bl	0 <__aeabi_fmul>
     50a:	4601      	mov	r1, r0
     50c:	980b      	ldr	r0, [sp, #44]	; 0x2c
     50e:	f7ff fffe 	bl	0 <__aeabi_fadd>
     512:	9933      	ldr	r1, [sp, #204]	; 0xcc
     514:	62a0      	str	r0, [r4, #40]	; 0x28
     516:	4630      	mov	r0, r6
     518:	f7ff fffe 	bl	0 <__aeabi_fmul>
     51c:	4601      	mov	r1, r0
     51e:	980c      	ldr	r0, [sp, #48]	; 0x30
     520:	f7ff fffe 	bl	0 <__aeabi_fadd>
     524:	9934      	ldr	r1, [sp, #208]	; 0xd0
     526:	62e0      	str	r0, [r4, #44]	; 0x2c
     528:	4630      	mov	r0, r6
     52a:	f7ff fffe 	bl	0 <__aeabi_fmul>
     52e:	4601      	mov	r1, r0
     530:	980d      	ldr	r0, [sp, #52]	; 0x34
     532:	f7ff fffe 	bl	0 <__aeabi_fadd>
     536:	a91b      	add	r1, sp, #108	; 0x6c
     538:	6320      	str	r0, [r4, #48]	; 0x30
     53a:	4638      	mov	r0, r7
     53c:	f7ff fd60 	bl	0 <StateEq.clone.1>
     540:	991b      	ldr	r1, [sp, #108]	; 0x6c
     542:	4628      	mov	r0, r5
     544:	f7ff fffe 	bl	0 <__aeabi_fmul>
     548:	4601      	mov	r1, r0
     54a:	9801      	ldr	r0, [sp, #4]
     54c:	f7ff fffe 	bl	0 <__aeabi_fadd>
     550:	991c      	ldr	r1, [sp, #112]	; 0x70
     552:	6020      	str	r0, [r4, #0]
     554:	4628      	mov	r0, r5
     556:	f7ff fffe 	bl	0 <__aeabi_fmul>
     55a:	4601      	mov	r1, r0
     55c:	9802      	ldr	r0, [sp, #8]
     55e:	f7ff fffe 	bl	0 <__aeabi_fadd>
     562:	991d      	ldr	r1, [sp, #116]	; 0x74
     564:	6060      	str	r0, [r4, #4]
     566:	4628      	mov	r0, r5
     568:	f7ff fffe 	bl	0 <__aeabi_fmul>
     56c:	4601      	mov	r1, r0
     56e:	9803      	ldr	r0, [sp, #12]
     570:	f7ff fffe 	bl	0 <__aeabi_fadd>
     574:	991e      	ldr	r1, [sp, #120]	; 0x78
     576:	60a0      	str	r0, [r4, #8]
     578:	4628      	mov	r0, r5
     57a:	f7ff fffe 	bl	0 <__aeabi_fmul>
     57e:	4601      	mov	r1, r0
     580:	9804      	ldr	r0, [sp, #16]
     582:	f7ff fffe 	bl	0 <__aeabi_fadd>
     586:	991f      	ldr	r1, [sp, #124]	; 0x7c
     588:	60e0      	str	r0, [r4, #12]
     58a:	4628      	mov	r0, r5
     58c:	f7ff fffe 	bl	0 <__aeabi_fmul>
     590:	4601      	mov	r1, r0
     592:	9805      	ldr	r0, [sp, #20]
     594:	f7ff fffe 	bl	0 <__aeabi_fadd>
     598:	9920      	ldr	r1, [sp, #128]	; 0x80
     59a:	e001      	b.n	5a0 <RungeKutta.clone.0+0x2b8>
     59c:	00000000 	andeq	r0, r0, r0
     5a0:	6120      	str	r0, [r4, #16]
     5a2:	4628      	mov	r0, r5
     5a4:	f7ff fffe 	bl	0 <__aeabi_fmul>
     5a8:	4601      	mov	r1, r0
     5aa:	9806      	ldr	r0, [sp, #24]
     5ac:	f7ff fffe 	bl	0 <__aeabi_fadd>
     5b0:	9921      	ldr	r1, [sp, #132]	; 0x84
     5b2:	6160      	str	r0, [r4, #20]
     5b4:	4628      	mov	r0, r5
     5b6:	f7ff fffe 	bl	0 <__aeabi_fmul>
     5ba:	4601      	mov	r1, r0
     5bc:	9807      	ldr	r0, [sp, #28]
     5be:	f7ff fffe 	bl	0 <__aeabi_fadd>
     5c2:	9922      	ldr	r1, [sp, #136]	; 0x88
     5c4:	61a0      	str	r0, [r4, #24]
     5c6:	4628      	mov	r0, r5
     5c8:	f7ff fffe 	bl	0 <__aeabi_fmul>
     5cc:	4601      	mov	r1, r0
     5ce:	9808      	ldr	r0, [sp, #32]
     5d0:	f7ff fffe 	bl	0 <__aeabi_fadd>
     5d4:	9923      	ldr	r1, [sp, #140]	; 0x8c
     5d6:	61e0      	str	r0, [r4, #28]
     5d8:	4628      	mov	r0, r5
     5da:	f7ff fffe 	bl	0 <__aeabi_fmul>
     5de:	4601      	mov	r1, r0
     5e0:	9809      	ldr	r0, [sp, #36]	; 0x24
     5e2:	f7ff fffe 	bl	0 <__aeabi_fadd>
     5e6:	9924      	ldr	r1, [sp, #144]	; 0x90
     5e8:	6220      	str	r0, [r4, #32]
     5ea:	4628      	mov	r0, r5
     5ec:	f7ff fffe 	bl	0 <__aeabi_fmul>
     5f0:	4601      	mov	r1, r0
     5f2:	980a      	ldr	r0, [sp, #40]	; 0x28
     5f4:	f7ff fffe 	bl	0 <__aeabi_fadd>
     5f8:	9925      	ldr	r1, [sp, #148]	; 0x94
     5fa:	6260      	str	r0, [r4, #36]	; 0x24
     5fc:	4628      	mov	r0, r5
     5fe:	f7ff fffe 	bl	0 <__aeabi_fmul>
     602:	4601      	mov	r1, r0
     604:	980b      	ldr	r0, [sp, #44]	; 0x2c
     606:	f7ff fffe 	bl	0 <__aeabi_fadd>
     60a:	9926      	ldr	r1, [sp, #152]	; 0x98
     60c:	62a0      	str	r0, [r4, #40]	; 0x28
     60e:	4628      	mov	r0, r5
     610:	f7ff fffe 	bl	0 <__aeabi_fmul>
     614:	4601      	mov	r1, r0
     616:	980c      	ldr	r0, [sp, #48]	; 0x30
     618:	f7ff fffe 	bl	0 <__aeabi_fadd>
     61c:	9927      	ldr	r1, [sp, #156]	; 0x9c
     61e:	62e0      	str	r0, [r4, #44]	; 0x2c
     620:	4628      	mov	r0, r5
     622:	f7ff fffe 	bl	0 <__aeabi_fmul>
     626:	4601      	mov	r1, r0
     628:	980d      	ldr	r0, [sp, #52]	; 0x34
     62a:	f7ff fffe 	bl	0 <__aeabi_fadd>
     62e:	a90e      	add	r1, sp, #56	; 0x38
     630:	6320      	str	r0, [r4, #48]	; 0x30
     632:	4638      	mov	r0, r7
     634:	f7ff fce4 	bl	0 <StateEq.clone.1>
     638:	9828      	ldr	r0, [sp, #160]	; 0xa0
     63a:	4601      	mov	r1, r0
     63c:	f7ff fffe 	bl	0 <__aeabi_fadd>
     640:	9935      	ldr	r1, [sp, #212]	; 0xd4
     642:	f7ff fffe 	bl	0 <__aeabi_fadd>
     646:	4606      	mov	r6, r0
     648:	981b      	ldr	r0, [sp, #108]	; 0x6c
     64a:	4601      	mov	r1, r0
     64c:	f7ff fffe 	bl	0 <__aeabi_fadd>
     650:	4601      	mov	r1, r0
     652:	4630      	mov	r0, r6
     654:	f7ff fffe 	bl	0 <__aeabi_fadd>
     658:	990e      	ldr	r1, [sp, #56]	; 0x38
     65a:	f7ff fffe 	bl	0 <__aeabi_fadd>
     65e:	4601      	mov	r1, r0
     660:	4628      	mov	r0, r5
     662:	f7ff fffe 	bl	0 <__aeabi_fmul>
     666:	49ab      	ldr	r1, [pc, #684]	; (2b0 <__aeabi_fdiv+0x2b0>)
     668:	f7ff fffe 	bl	0 <__aeabi_fdiv>
     66c:	4601      	mov	r1, r0
     66e:	9801      	ldr	r0, [sp, #4]
     670:	f7ff fffe 	bl	0 <__aeabi_fadd>
     674:	6020      	str	r0, [r4, #0]
     676:	9829      	ldr	r0, [sp, #164]	; 0xa4
     678:	4601      	mov	r1, r0
     67a:	f7ff fffe 	bl	0 <__aeabi_fadd>
     67e:	9936      	ldr	r1, [sp, #216]	; 0xd8
     680:	f7ff fffe 	bl	0 <__aeabi_fadd>
     684:	4606      	mov	r6, r0
     686:	981c      	ldr	r0, [sp, #112]	; 0x70
     688:	4601      	mov	r1, r0
     68a:	f7ff fffe 	bl	0 <__aeabi_fadd>
     68e:	4601      	mov	r1, r0
     690:	4630      	mov	r0, r6
     692:	f7ff fffe 	bl	0 <__aeabi_fadd>
     696:	990f      	ldr	r1, [sp, #60]	; 0x3c
     698:	f7ff fffe 	bl	0 <__aeabi_fadd>
     69c:	4601      	mov	r1, r0
     69e:	4628      	mov	r0, r5
     6a0:	f7ff fffe 	bl	0 <__aeabi_fmul>
     6a4:	499b      	ldr	r1, [pc, #620]	; (270 <__aeabi_fdiv+0x270>)
     6a6:	f7ff fffe 	bl	0 <__aeabi_fdiv>
     6aa:	4601      	mov	r1, r0
     6ac:	9802      	ldr	r0, [sp, #8]
     6ae:	f7ff fffe 	bl	0 <__aeabi_fadd>
     6b2:	6060      	str	r0, [r4, #4]
     6b4:	982a      	ldr	r0, [sp, #168]	; 0xa8
     6b6:	4601      	mov	r1, r0
     6b8:	f7ff fffe 	bl	0 <__aeabi_fadd>
     6bc:	9937      	ldr	r1, [sp, #220]	; 0xdc
     6be:	f7ff fffe 	bl	0 <__aeabi_fadd>
     6c2:	4606      	mov	r6, r0
     6c4:	981d      	ldr	r0, [sp, #116]	; 0x74
     6c6:	4601      	mov	r1, r0
     6c8:	f7ff fffe 	bl	0 <__aeabi_fadd>
     6cc:	4601      	mov	r1, r0
     6ce:	4630      	mov	r0, r6
     6d0:	f7ff fffe 	bl	0 <__aeabi_fadd>
     6d4:	9910      	ldr	r1, [sp, #64]	; 0x40
     6d6:	f7ff fffe 	bl	0 <__aeabi_fadd>
     6da:	4601      	mov	r1, r0
     6dc:	4628      	mov	r0, r5
     6de:	f7ff fffe 	bl	0 <__aeabi_fmul>
     6e2:	498c      	ldr	r1, [pc, #560]	; (234 <__aeabi_fdiv+0x234>)
     6e4:	f7ff fffe 	bl	0 <__aeabi_fdiv>
     6e8:	4601      	mov	r1, r0
     6ea:	9803      	ldr	r0, [sp, #12]
     6ec:	f7ff fffe 	bl	0 <__aeabi_fadd>
     6f0:	60a0      	str	r0, [r4, #8]
     6f2:	982b      	ldr	r0, [sp, #172]	; 0xac
     6f4:	4601      	mov	r1, r0
     6f6:	f7ff fffe 	bl	0 <__aeabi_fadd>
     6fa:	9938      	ldr	r1, [sp, #224]	; 0xe0
     6fc:	f7ff fffe 	bl	0 <__aeabi_fadd>
     700:	4606      	mov	r6, r0
     702:	981e      	ldr	r0, [sp, #120]	; 0x78
     704:	4601      	mov	r1, r0
     706:	f7ff fffe 	bl	0 <__aeabi_fadd>
     70a:	4601      	mov	r1, r0
     70c:	4630      	mov	r0, r6
     70e:	f7ff fffe 	bl	0 <__aeabi_fadd>
     712:	9911      	ldr	r1, [sp, #68]	; 0x44
     714:	f7ff fffe 	bl	0 <__aeabi_fadd>
     718:	4601      	mov	r1, r0
     71a:	4628      	mov	r0, r5
     71c:	f7ff fffe 	bl	0 <__aeabi_fmul>
     720:	497c      	ldr	r1, [pc, #496]	; (1f4 <__aeabi_fdiv+0x1f4>)
     722:	f7ff fffe 	bl	0 <__aeabi_fdiv>
     726:	4601      	mov	r1, r0
     728:	9804      	ldr	r0, [sp, #16]
     72a:	f7ff fffe 	bl	0 <__aeabi_fadd>
     72e:	60e0      	str	r0, [r4, #12]
     730:	982c      	ldr	r0, [sp, #176]	; 0xb0
     732:	4601      	mov	r1, r0
     734:	f7ff fffe 	bl	0 <__aeabi_fadd>
     738:	9939      	ldr	r1, [sp, #228]	; 0xe4
     73a:	f7ff fffe 	bl	0 <__aeabi_fadd>
     73e:	4606      	mov	r6, r0
     740:	981f      	ldr	r0, [sp, #124]	; 0x7c
     742:	4601      	mov	r1, r0
     744:	f7ff fffe 	bl	0 <__aeabi_fadd>
     748:	4601      	mov	r1, r0
     74a:	4630      	mov	r0, r6
     74c:	f7ff fffe 	bl	0 <__aeabi_fadd>
     750:	9912      	ldr	r1, [sp, #72]	; 0x48
     752:	f7ff fffe 	bl	0 <__aeabi_fadd>
     756:	4601      	mov	r1, r0
     758:	4628      	mov	r0, r5
     75a:	f7ff fffe 	bl	0 <__aeabi_fmul>
     75e:	496d      	ldr	r1, [pc, #436]	; (1b8 <__aeabi_fdiv+0x1b8>)
     760:	f7ff fffe 	bl	0 <__aeabi_fdiv>
     764:	4601      	mov	r1, r0
     766:	9805      	ldr	r0, [sp, #20]
     768:	f7ff fffe 	bl	0 <__aeabi_fadd>
     76c:	6120      	str	r0, [r4, #16]
     76e:	982d      	ldr	r0, [sp, #180]	; 0xb4
     770:	4601      	mov	r1, r0
     772:	f7ff fffe 	bl	0 <__aeabi_fadd>
     776:	993a      	ldr	r1, [sp, #232]	; 0xe8
     778:	f7ff fffe 	bl	0 <__aeabi_fadd>
     77c:	4606      	mov	r6, r0
     77e:	9820      	ldr	r0, [sp, #128]	; 0x80
     780:	4601      	mov	r1, r0
     782:	f7ff fffe 	bl	0 <__aeabi_fadd>
     786:	4601      	mov	r1, r0
     788:	4630      	mov	r0, r6
     78a:	f7ff fffe 	bl	0 <__aeabi_fadd>
     78e:	9913      	ldr	r1, [sp, #76]	; 0x4c
     790:	f7ff fffe 	bl	0 <__aeabi_fadd>
     794:	4601      	mov	r1, r0
     796:	4628      	mov	r0, r5
     798:	f7ff fffe 	bl	0 <__aeabi_fmul>
     79c:	495d      	ldr	r1, [pc, #372]	; (178 <__aeabi_fdiv+0x178>)
     79e:	f7ff fffe 	bl	0 <__aeabi_fdiv>
     7a2:	4601      	mov	r1, r0
     7a4:	9806      	ldr	r0, [sp, #24]
     7a6:	f7ff fffe 	bl	0 <__aeabi_fadd>
     7aa:	6160      	str	r0, [r4, #20]
     7ac:	982e      	ldr	r0, [sp, #184]	; 0xb8
     7ae:	4601      	mov	r1, r0
     7b0:	f7ff fffe 	bl	0 <__aeabi_fadd>
     7b4:	993b      	ldr	r1, [sp, #236]	; 0xec
     7b6:	f7ff fffe 	bl	0 <__aeabi_fadd>
     7ba:	4606      	mov	r6, r0
     7bc:	9821      	ldr	r0, [sp, #132]	; 0x84
     7be:	4601      	mov	r1, r0
     7c0:	f7ff fffe 	bl	0 <__aeabi_fadd>
     7c4:	4601      	mov	r1, r0
     7c6:	4630      	mov	r0, r6
     7c8:	f7ff fffe 	bl	0 <__aeabi_fadd>
     7cc:	9914      	ldr	r1, [sp, #80]	; 0x50
     7ce:	f7ff fffe 	bl	0 <__aeabi_fadd>
     7d2:	4601      	mov	r1, r0
     7d4:	4628      	mov	r0, r5
     7d6:	f7ff fffe 	bl	0 <__aeabi_fmul>
     7da:	494e      	ldr	r1, [pc, #312]	; (13c <__aeabi_fdiv+0x13c>)
     7dc:	f7ff fffe 	bl	0 <__aeabi_fdiv>
     7e0:	4601      	mov	r1, r0
     7e2:	9807      	ldr	r0, [sp, #28]
     7e4:	f7ff fffe 	bl	0 <__aeabi_fadd>
     7e8:	61a0      	str	r0, [r4, #24]
     7ea:	982f      	ldr	r0, [sp, #188]	; 0xbc
     7ec:	4601      	mov	r1, r0
     7ee:	f7ff fffe 	bl	0 <__aeabi_fadd>
     7f2:	993c      	ldr	r1, [sp, #240]	; 0xf0
     7f4:	f7ff fffe 	bl	0 <__aeabi_fadd>
     7f8:	4606      	mov	r6, r0
     7fa:	9822      	ldr	r0, [sp, #136]	; 0x88
     7fc:	4601      	mov	r1, r0
     7fe:	f7ff fffe 	bl	0 <__aeabi_fadd>
     802:	4601      	mov	r1, r0
     804:	4630      	mov	r0, r6
     806:	f7ff fffe 	bl	0 <__aeabi_fadd>
     80a:	9915      	ldr	r1, [sp, #84]	; 0x54
     80c:	f7ff fffe 	bl	0 <__aeabi_fadd>
     810:	4601      	mov	r1, r0
     812:	4628      	mov	r0, r5
     814:	f7ff fffe 	bl	0 <__aeabi_fmul>
     818:	493e      	ldr	r1, [pc, #248]	; (fc <__aeabi_fdiv+0xfc>)
     81a:	f7ff fffe 	bl	0 <__aeabi_fdiv>
     81e:	4601      	mov	r1, r0
     820:	9808      	ldr	r0, [sp, #32]
     822:	f7ff fffe 	bl	0 <__aeabi_fadd>
     826:	61e0      	str	r0, [r4, #28]
     828:	9830      	ldr	r0, [sp, #192]	; 0xc0
     82a:	4601      	mov	r1, r0
     82c:	f7ff fffe 	bl	0 <__aeabi_fadd>
     830:	993d      	ldr	r1, [sp, #244]	; 0xf4
     832:	f7ff fffe 	bl	0 <__aeabi_fadd>
     836:	4606      	mov	r6, r0
     838:	9823      	ldr	r0, [sp, #140]	; 0x8c
     83a:	4601      	mov	r1, r0
     83c:	f7ff fffe 	bl	0 <__aeabi_fadd>
     840:	4601      	mov	r1, r0
     842:	4630      	mov	r0, r6
     844:	f7ff fffe 	bl	0 <__aeabi_fadd>
     848:	9916      	ldr	r1, [sp, #88]	; 0x58
     84a:	f7ff fffe 	bl	0 <__aeabi_fadd>
     84e:	4601      	mov	r1, r0
     850:	4628      	mov	r0, r5
     852:	f7ff fffe 	bl	0 <__aeabi_fmul>
     856:	492f      	ldr	r1, [pc, #188]	; (c0 <__aeabi_fdiv+0xc0>)
     858:	f7ff fffe 	bl	0 <__aeabi_fdiv>
     85c:	4601      	mov	r1, r0
     85e:	9809      	ldr	r0, [sp, #36]	; 0x24
     860:	f7ff fffe 	bl	0 <__aeabi_fadd>
     864:	6220      	str	r0, [r4, #32]
     866:	9831      	ldr	r0, [sp, #196]	; 0xc4
     868:	4601      	mov	r1, r0
     86a:	f7ff fffe 	bl	0 <__aeabi_fadd>
     86e:	993e      	ldr	r1, [sp, #248]	; 0xf8
     870:	f7ff fffe 	bl	0 <__aeabi_fadd>
     874:	4606      	mov	r6, r0
     876:	9824      	ldr	r0, [sp, #144]	; 0x90
     878:	4601      	mov	r1, r0
     87a:	f7ff fffe 	bl	0 <__aeabi_fadd>
     87e:	4601      	mov	r1, r0
     880:	4630      	mov	r0, r6
     882:	f7ff fffe 	bl	0 <__aeabi_fadd>
     886:	9917      	ldr	r1, [sp, #92]	; 0x5c
     888:	f7ff fffe 	bl	0 <__aeabi_fadd>
     88c:	4601      	mov	r1, r0
     88e:	4628      	mov	r0, r5
     890:	f7ff fffe 	bl	0 <__aeabi_fmul>
     894:	491f      	ldr	r1, [pc, #124]	; (80 <__aeabi_fdiv+0x80>)
     896:	f7ff fffe 	bl	0 <__aeabi_fdiv>
     89a:	4601      	mov	r1, r0
     89c:	980a      	ldr	r0, [sp, #40]	; 0x28
     89e:	f7ff fffe 	bl	0 <__aeabi_fadd>
     8a2:	6260      	str	r0, [r4, #36]	; 0x24
     8a4:	9832      	ldr	r0, [sp, #200]	; 0xc8
     8a6:	4601      	mov	r1, r0
     8a8:	f7ff fffe 	bl	0 <__aeabi_fadd>
     8ac:	993f      	ldr	r1, [sp, #252]	; 0xfc
     8ae:	f7ff fffe 	bl	0 <__aeabi_fadd>
     8b2:	4606      	mov	r6, r0
     8b4:	9825      	ldr	r0, [sp, #148]	; 0x94
     8b6:	4601      	mov	r1, r0
     8b8:	f7ff fffe 	bl	0 <__aeabi_fadd>
     8bc:	4601      	mov	r1, r0
     8be:	4630      	mov	r0, r6
     8c0:	f7ff fffe 	bl	0 <__aeabi_fadd>
     8c4:	9918      	ldr	r1, [sp, #96]	; 0x60
     8c6:	f7ff fffe 	bl	0 <__aeabi_fadd>
     8ca:	4601      	mov	r1, r0
     8cc:	4628      	mov	r0, r5
     8ce:	f7ff fffe 	bl	0 <__aeabi_fmul>
     8d2:	4910      	ldr	r1, [pc, #64]	; (44 <__aeabi_fdiv+0x44>)
     8d4:	f7ff fffe 	bl	0 <__aeabi_fdiv>
     8d8:	4601      	mov	r1, r0
     8da:	980b      	ldr	r0, [sp, #44]	; 0x2c
     8dc:	f7ff fffe 	bl	0 <__aeabi_fadd>
     8e0:	62a0      	str	r0, [r4, #40]	; 0x28
     8e2:	9833      	ldr	r0, [sp, #204]	; 0xcc
     8e4:	4601      	mov	r1, r0
     8e6:	f7ff fffe 	bl	0 <__aeabi_fadd>
     8ea:	9940      	ldr	r1, [sp, #256]	; 0x100
     8ec:	f7ff fffe 	bl	0 <__aeabi_fadd>
     8f0:	4606      	mov	r6, r0
     8f2:	9826      	ldr	r0, [sp, #152]	; 0x98
     8f4:	4601      	mov	r1, r0
     8f6:	f7ff fffe 	bl	0 <__aeabi_fadd>
     8fa:	4601      	mov	r1, r0
     8fc:	4630      	mov	r0, r6
     8fe:	f7ff fffe 	bl	0 <__aeabi_fadd>
     902:	9919      	ldr	r1, [sp, #100]	; 0x64
     904:	f7ff fffe 	bl	0 <__aeabi_fadd>
     908:	4601      	mov	r1, r0
     90a:	4628      	mov	r0, r5
     90c:	f7ff fffe 	bl	0 <__aeabi_fmul>
     910:	e002      	b.n	918 <RungeKutta.clone.0+0x630>
     912:	bf00      	nop
     914:	40c00000 	sbcmi	r0, r0, r0
     918:	4914      	ldr	r1, [pc, #80]	; (54 <__aeabi_fdiv+0x54>)
     91a:	f7ff fffe 	bl	0 <__aeabi_fdiv>
     91e:	4601      	mov	r1, r0
     920:	980c      	ldr	r0, [sp, #48]	; 0x30
     922:	f7ff fffe 	bl	0 <__aeabi_fadd>
     926:	62e0      	str	r0, [r4, #44]	; 0x2c
     928:	9834      	ldr	r0, [sp, #208]	; 0xd0
     92a:	4601      	mov	r1, r0
     92c:	f7ff fffe 	bl	0 <__aeabi_fadd>
     930:	9941      	ldr	r1, [sp, #260]	; 0x104
     932:	f7ff fffe 	bl	0 <__aeabi_fadd>
     936:	4606      	mov	r6, r0
     938:	9827      	ldr	r0, [sp, #156]	; 0x9c
     93a:	4601      	mov	r1, r0
     93c:	f7ff fffe 	bl	0 <__aeabi_fadd>
     940:	4601      	mov	r1, r0
     942:	4630      	mov	r0, r6
     944:	f7ff fffe 	bl	0 <__aeabi_fadd>
     948:	991a      	ldr	r1, [sp, #104]	; 0x68
     94a:	f7ff fffe 	bl	0 <__aeabi_fadd>
     94e:	4601      	mov	r1, r0
     950:	4628      	mov	r0, r5
     952:	f7ff fffe 	bl	0 <__aeabi_fmul>
     956:	4905      	ldr	r1, [pc, #20]	; (18 <__aeabi_fdiv+0x18>)
     958:	f7ff fffe 	bl	0 <__aeabi_fdiv>
     95c:	4601      	mov	r1, r0
     95e:	980d      	ldr	r0, [sp, #52]	; 0x34
     960:	f7ff fffe 	bl	0 <__aeabi_fadd>
     964:	6320      	str	r0, [r4, #48]	; 0x30
     966:	b043      	add	sp, #268	; 0x10c
     968:	e8bd 8ff0 	ldmia.w	sp!, {r4, r5, r6, r7, r8, r9, sl, fp, pc}
     96c:	40c00000 	sbcmi	r0, r0, r0

00000970 <ins_get_num_states>:
     970:	200d      	movs	r0, #13
     972:	4770      	bx	lr

00000974 <INSGPSInit>:
     974:	4bc8      	ldr	r3, [pc, #800]	; (c98 <INSGPSInit+0x324>)
     976:	e92d 07f0 	stmdb	sp!, {r4, r5, r6, r7, r8, r9, sl}
     97a:	48c8      	ldr	r0, [pc, #800]	; (c9c <INSGPSInit+0x328>)
     97c:	4cc8      	ldr	r4, [pc, #800]	; (ca0 <INSGPSInit+0x32c>)
     97e:	f8df 933c 	ldr.w	r9, [pc, #828]	; cbc <INSGPSInit+0x348>
     982:	2200      	movs	r2, #0
     984:	f04f 5a7e 	mov.w	sl, #1065353216	; 0x3f800000
     988:	49c6      	ldr	r1, [pc, #792]	; (ca4 <INSGPSInit+0x330>)
     98a:	f8df 8334 	ldr.w	r8, [pc, #820]	; cc0 <INSGPSInit+0x34c>
     98e:	f8df c334 	ldr.w	ip, [pc, #820]	; cc4 <INSGPSInit+0x350>
     992:	4fc5      	ldr	r7, [pc, #788]	; (ca8 <INSGPSInit+0x334>)
     994:	4ec5      	ldr	r6, [pc, #788]	; (cac <INSGPSInit+0x338>)
     996:	4dc6      	ldr	r5, [pc, #792]	; (cb0 <INSGPSInit+0x33c>)
     998:	639a      	str	r2, [r3, #56]	; 0x38
     99a:	63da      	str	r2, [r3, #60]	; 0x3c
     99c:	645a      	str	r2, [r3, #68]	; 0x44
     99e:	649a      	str	r2, [r3, #72]	; 0x48
     9a0:	64da      	str	r2, [r3, #76]	; 0x4c
     9a2:	651a      	str	r2, [r3, #80]	; 0x50
     9a4:	655a      	str	r2, [r3, #84]	; 0x54
     9a6:	659a      	str	r2, [r3, #88]	; 0x58
     9a8:	65da      	str	r2, [r3, #92]	; 0x5c
     9aa:	661a      	str	r2, [r3, #96]	; 0x60
     9ac:	665a      	str	r2, [r3, #100]	; 0x64
     9ae:	669a      	str	r2, [r3, #104]	; 0x68
     9b0:	66da      	str	r2, [r3, #108]	; 0x6c
     9b2:	671a      	str	r2, [r3, #112]	; 0x70
     9b4:	675a      	str	r2, [r3, #116]	; 0x74
     9b6:	67da      	str	r2, [r3, #124]	; 0x7c
     9b8:	f8c3 2080 	str.w	r2, [r3, #128]	; 0x80
     9bc:	f8c3 2084 	str.w	r2, [r3, #132]	; 0x84
     9c0:	f8c3 2088 	str.w	r2, [r3, #136]	; 0x88
     9c4:	f8c3 208c 	str.w	r2, [r3, #140]	; 0x8c
     9c8:	f8c3 2090 	str.w	r2, [r3, #144]	; 0x90
     9cc:	f8c3 2094 	str.w	r2, [r3, #148]	; 0x94
     9d0:	f8c3 2098 	str.w	r2, [r3, #152]	; 0x98
     9d4:	f8c3 209c 	str.w	r2, [r3, #156]	; 0x9c
     9d8:	f8c3 20a0 	str.w	r2, [r3, #160]	; 0xa0
     9dc:	f8c3 20a4 	str.w	r2, [r3, #164]	; 0xa4
     9e0:	f8c3 20a8 	str.w	r2, [r3, #168]	; 0xa8
     9e4:	f8c3 20ac 	str.w	r2, [r3, #172]	; 0xac
     9e8:	f8c3 20b4 	str.w	r2, [r3, #180]	; 0xb4
     9ec:	f8c3 20b8 	str.w	r2, [r3, #184]	; 0xb8
     9f0:	f8c3 20bc 	str.w	r2, [r3, #188]	; 0xbc
     9f4:	f8c3 a034 	str.w	sl, [r3, #52]	; 0x34
     9f8:	f8c3 20c0 	str.w	r2, [r3, #192]	; 0xc0
     9fc:	f8c3 20c4 	str.w	r2, [r3, #196]	; 0xc4
     a00:	f8c3 20c8 	str.w	r2, [r3, #200]	; 0xc8
     a04:	f8c3 20cc 	str.w	r2, [r3, #204]	; 0xcc
     a08:	f8c3 20d0 	str.w	r2, [r3, #208]	; 0xd0
     a0c:	f8c3 20d4 	str.w	r2, [r3, #212]	; 0xd4
     a10:	f8c3 20d8 	str.w	r2, [r3, #216]	; 0xd8
     a14:	f8c3 20dc 	str.w	r2, [r3, #220]	; 0xdc
     a18:	f8c3 20e0 	str.w	r2, [r3, #224]	; 0xe0
     a1c:	f8c3 20e4 	str.w	r2, [r3, #228]	; 0xe4
     a20:	f8c3 20ec 	str.w	r2, [r3, #236]	; 0xec
     a24:	f8c3 20f0 	str.w	r2, [r3, #240]	; 0xf0
     a28:	f8c3 20f4 	str.w	r2, [r3, #244]	; 0xf4
     a2c:	f8c3 20f8 	str.w	r2, [r3, #248]	; 0xf8
     a30:	f8c3 20fc 	str.w	r2, [r3, #252]	; 0xfc
     a34:	f8c3 2100 	str.w	r2, [r3, #256]	; 0x100
     a38:	f8c3 2104 	str.w	r2, [r3, #260]	; 0x104
     a3c:	f8c3 2108 	str.w	r2, [r3, #264]	; 0x108
     a40:	f8c3 210c 	str.w	r2, [r3, #268]	; 0x10c
     a44:	f8c3 2110 	str.w	r2, [r3, #272]	; 0x110
     a48:	f8c3 2114 	str.w	r2, [r3, #276]	; 0x114
     a4c:	f8c3 2118 	str.w	r2, [r3, #280]	; 0x118
     a50:	f8c3 211c 	str.w	r2, [r3, #284]	; 0x11c
     a54:	f8c3 2124 	str.w	r2, [r3, #292]	; 0x124
     a58:	f8c3 2128 	str.w	r2, [r3, #296]	; 0x128
     a5c:	f8c3 212c 	str.w	r2, [r3, #300]	; 0x12c
     a60:	f8c3 2130 	str.w	r2, [r3, #304]	; 0x130
     a64:	f8c3 2134 	str.w	r2, [r3, #308]	; 0x134
     a68:	f8c3 2138 	str.w	r2, [r3, #312]	; 0x138
     a6c:	f8c3 213c 	str.w	r2, [r3, #316]	; 0x13c
     a70:	f8c3 2140 	str.w	r2, [r3, #320]	; 0x140
     a74:	f8c3 2144 	str.w	r2, [r3, #324]	; 0x144
     a78:	f8c3 2148 	str.w	r2, [r3, #328]	; 0x148
     a7c:	f8c3 214c 	str.w	r2, [r3, #332]	; 0x14c
     a80:	f8c3 2150 	str.w	r2, [r3, #336]	; 0x150
     a84:	f8c3 2154 	str.w	r2, [r3, #340]	; 0x154
     a88:	f8c3 215c 	str.w	r2, [r3, #348]	; 0x15c
     a8c:	f8c3 2160 	str.w	r2, [r3, #352]	; 0x160
     a90:	f8c3 2164 	str.w	r2, [r3, #356]	; 0x164
     a94:	f8c3 2168 	str.w	r2, [r3, #360]	; 0x168
     a98:	f8c3 216c 	str.w	r2, [r3, #364]	; 0x16c
     a9c:	f8c3 2170 	str.w	r2, [r3, #368]	; 0x170
     aa0:	f8c3 2174 	str.w	r2, [r3, #372]	; 0x174
     aa4:	f8c3 2178 	str.w	r2, [r3, #376]	; 0x178
     aa8:	f8c3 217c 	str.w	r2, [r3, #380]	; 0x17c
     aac:	f8c3 2180 	str.w	r2, [r3, #384]	; 0x180
     ab0:	f8c3 2184 	str.w	r2, [r3, #388]	; 0x184
     ab4:	f8c3 2188 	str.w	r2, [r3, #392]	; 0x188
     ab8:	f8c3 218c 	str.w	r2, [r3, #396]	; 0x18c
     abc:	f8c3 2194 	str.w	r2, [r3, #404]	; 0x194
     ac0:	f8c3 2198 	str.w	r2, [r3, #408]	; 0x198
     ac4:	f8c3 219c 	str.w	r2, [r3, #412]	; 0x19c
     ac8:	f8c3 21a0 	str.w	r2, [r3, #416]	; 0x1a0
     acc:	f8c3 21a4 	str.w	r2, [r3, #420]	; 0x1a4
     ad0:	f8c3 21a8 	str.w	r2, [r3, #424]	; 0x1a8
     ad4:	f8c3 21ac 	str.w	r2, [r3, #428]	; 0x1ac
     ad8:	f8c3 21b0 	str.w	r2, [r3, #432]	; 0x1b0
     adc:	f8c3 21b4 	str.w	r2, [r3, #436]	; 0x1b4
     ae0:	f8c3 21b8 	str.w	r2, [r3, #440]	; 0x1b8
     ae4:	f8c3 21bc 	str.w	r2, [r3, #444]	; 0x1bc
     ae8:	f8c3 21c0 	str.w	r2, [r3, #448]	; 0x1c0
     aec:	f8c3 21c4 	str.w	r2, [r3, #452]	; 0x1c4
     af0:	f8c3 21cc 	str.w	r2, [r3, #460]	; 0x1cc
     af4:	f8c3 21d0 	str.w	r2, [r3, #464]	; 0x1d0
     af8:	f8c3 21d4 	str.w	r2, [r3, #468]	; 0x1d4
     afc:	f8c3 21d8 	str.w	r2, [r3, #472]	; 0x1d8
     b00:	f8c3 21dc 	str.w	r2, [r3, #476]	; 0x1dc
     b04:	f8c3 21e0 	str.w	r2, [r3, #480]	; 0x1e0
     b08:	f8c3 21e4 	str.w	r2, [r3, #484]	; 0x1e4
     b0c:	f8c3 21e8 	str.w	r2, [r3, #488]	; 0x1e8
     b10:	f8c3 21ec 	str.w	r2, [r3, #492]	; 0x1ec
     b14:	f8c3 21f0 	str.w	r2, [r3, #496]	; 0x1f0
     b18:	f8c3 21f4 	str.w	r2, [r3, #500]	; 0x1f4
     b1c:	f8c3 21f8 	str.w	r2, [r3, #504]	; 0x1f8
     b20:	f8c3 21fc 	str.w	r2, [r3, #508]	; 0x1fc
     b24:	f8c3 2204 	str.w	r2, [r3, #516]	; 0x204
     b28:	f8c3 2208 	str.w	r2, [r3, #520]	; 0x208
     b2c:	f8c3 220c 	str.w	r2, [r3, #524]	; 0x20c
     b30:	f8c3 2210 	str.w	r2, [r3, #528]	; 0x210
     b34:	f8c3 2214 	str.w	r2, [r3, #532]	; 0x214
     b38:	f8c3 2218 	str.w	r2, [r3, #536]	; 0x218
     b3c:	f8c3 221c 	str.w	r2, [r3, #540]	; 0x21c
     b40:	f8c3 2220 	str.w	r2, [r3, #544]	; 0x220
     b44:	f8c3 2224 	str.w	r2, [r3, #548]	; 0x224
     b48:	f8c3 2228 	str.w	r2, [r3, #552]	; 0x228
     b4c:	f8c3 222c 	str.w	r2, [r3, #556]	; 0x22c
     b50:	f8c3 2230 	str.w	r2, [r3, #560]	; 0x230
     b54:	f8c3 2234 	str.w	r2, [r3, #564]	; 0x234
     b58:	f8c3 223c 	str.w	r2, [r3, #572]	; 0x23c
     b5c:	f8c3 2240 	str.w	r2, [r3, #576]	; 0x240
     b60:	f8c3 2244 	str.w	r2, [r3, #580]	; 0x244
     b64:	f8c3 2248 	str.w	r2, [r3, #584]	; 0x248
     b68:	f8c3 224c 	str.w	r2, [r3, #588]	; 0x24c
     b6c:	f8c3 2250 	str.w	r2, [r3, #592]	; 0x250
     b70:	f8c3 2254 	str.w	r2, [r3, #596]	; 0x254
     b74:	f8c3 2258 	str.w	r2, [r3, #600]	; 0x258
     b78:	f8c3 225c 	str.w	r2, [r3, #604]	; 0x25c
     b7c:	f8c3 2260 	str.w	r2, [r3, #608]	; 0x260
     b80:	f8c3 2264 	str.w	r2, [r3, #612]	; 0x264
     b84:	f8c3 2268 	str.w	r2, [r3, #616]	; 0x268
     b88:	f8c3 226c 	str.w	r2, [r3, #620]	; 0x26c
     b8c:	f8c3 2274 	str.w	r2, [r3, #628]	; 0x274
     b90:	f8c3 2278 	str.w	r2, [r3, #632]	; 0x278
     b94:	f8c3 227c 	str.w	r2, [r3, #636]	; 0x27c
     b98:	f8c3 2280 	str.w	r2, [r3, #640]	; 0x280
     b9c:	f8c3 2284 	str.w	r2, [r3, #644]	; 0x284
     ba0:	f8c3 2288 	str.w	r2, [r3, #648]	; 0x288
     ba4:	f8c3 228c 	str.w	r2, [r3, #652]	; 0x28c
     ba8:	f8c3 2290 	str.w	r2, [r3, #656]	; 0x290
     bac:	f8c3 2294 	str.w	r2, [r3, #660]	; 0x294
     bb0:	f8c3 2298 	str.w	r2, [r3, #664]	; 0x298
     bb4:	f8c3 229c 	str.w	r2, [r3, #668]	; 0x29c
     bb8:	f8c3 22a0 	str.w	r2, [r3, #672]	; 0x2a0
     bbc:	f8c3 22a4 	str.w	r2, [r3, #676]	; 0x2a4
     bc0:	f8c3 22ac 	str.w	r2, [r3, #684]	; 0x2ac
     bc4:	f8c3 22b0 	str.w	r2, [r3, #688]	; 0x2b0
     bc8:	f8c3 22b4 	str.w	r2, [r3, #692]	; 0x2b4
     bcc:	f8c3 22b8 	str.w	r2, [r3, #696]	; 0x2b8
     bd0:	f8c3 22bc 	str.w	r2, [r3, #700]	; 0x2bc
     bd4:	f8c3 22c0 	str.w	r2, [r3, #704]	; 0x2c0
     bd8:	f8c3 22c4 	str.w	r2, [r3, #708]	; 0x2c4
     bdc:	f8c3 22c8 	str.w	r2, [r3, #712]	; 0x2c8
     be0:	f8c3 22cc 	str.w	r2, [r3, #716]	; 0x2cc
     be4:	f8c3 22d0 	str.w	r2, [r3, #720]	; 0x2d0
     be8:	f8c3 22d4 	str.w	r2, [r3, #724]	; 0x2d4
     bec:	f8c3 22d8 	str.w	r2, [r3, #728]	; 0x2d8
     bf0:	f8c3 22dc 	str.w	r2, [r3, #732]	; 0x2dc
     bf4:	f8c3 00b0 	str.w	r0, [r3, #176]	; 0xb0
     bf8:	6798      	str	r0, [r3, #120]	; 0x78
     bfa:	6418      	str	r0, [r3, #64]	; 0x40
     bfc:	f8c3 9158 	str.w	r9, [r3, #344]	; 0x158
     c00:	f8c3 9120 	str.w	r9, [r3, #288]	; 0x120
     c04:	f8c3 90e8 	str.w	r9, [r3, #232]	; 0xe8
     c08:	f8c3 4238 	str.w	r4, [r3, #568]	; 0x238
     c0c:	f8c3 4200 	str.w	r4, [r3, #512]	; 0x200
     c10:	f8c3 41c8 	str.w	r4, [r3, #456]	; 0x1c8
     c14:	f8c3 4190 	str.w	r4, [r3, #400]	; 0x190
     c18:	615a      	str	r2, [r3, #20]
     c1a:	611a      	str	r2, [r3, #16]
     c1c:	60da      	str	r2, [r3, #12]
     c1e:	609a      	str	r2, [r3, #8]
     c20:	605a      	str	r2, [r3, #4]
     c22:	601a      	str	r2, [r3, #0]
     c24:	625a      	str	r2, [r3, #36]	; 0x24
     c26:	621a      	str	r2, [r3, #32]
     c28:	61da      	str	r2, [r3, #28]
     c2a:	631a      	str	r2, [r3, #48]	; 0x30
     c2c:	62da      	str	r2, [r3, #44]	; 0x2c
     c2e:	629a      	str	r2, [r3, #40]	; 0x28
     c30:	f8c3 0310 	str.w	r0, [r3, #784]	; 0x310
     c34:	4a1f      	ldr	r2, [pc, #124]	; (cb4 <INSGPSInit+0x340>)
     c36:	4820      	ldr	r0, [pc, #128]	; (cb8 <INSGPSInit+0x344>)
     c38:	f8c3 82e0 	str.w	r8, [r3, #736]	; 0x2e0
     c3c:	f8c3 82a8 	str.w	r8, [r3, #680]	; 0x2a8
     c40:	f8c3 8270 	str.w	r8, [r3, #624]	; 0x270
     c44:	f8c3 a018 	str.w	sl, [r3, #24]
     c48:	f8c3 c2ec 	str.w	ip, [r3, #748]	; 0x2ec
     c4c:	f8c3 c2e8 	str.w	ip, [r3, #744]	; 0x2e8
     c50:	f8c3 c2e4 	str.w	ip, [r3, #740]	; 0x2e4
     c54:	f8c3 72f8 	str.w	r7, [r3, #760]	; 0x2f8
     c58:	f8c3 72f4 	str.w	r7, [r3, #756]	; 0x2f4
     c5c:	f8c3 72f0 	str.w	r7, [r3, #752]	; 0x2f0
     c60:	f8c3 6304 	str.w	r6, [r3, #772]	; 0x304
     c64:	f8c3 6300 	str.w	r6, [r3, #768]	; 0x300
     c68:	f8c3 62fc 	str.w	r6, [r3, #764]	; 0x2fc
     c6c:	f8c3 130c 	str.w	r1, [r3, #780]	; 0x30c
     c70:	f8c3 1308 	str.w	r1, [r3, #776]	; 0x308
     c74:	f8c3 1318 	str.w	r1, [r3, #792]	; 0x318
     c78:	f8c3 1314 	str.w	r1, [r3, #788]	; 0x314
     c7c:	f8c3 031c 	str.w	r0, [r3, #796]	; 0x31c
     c80:	f8c3 5328 	str.w	r5, [r3, #808]	; 0x328
     c84:	f8c3 5324 	str.w	r5, [r3, #804]	; 0x324
     c88:	f8c3 5320 	str.w	r5, [r3, #800]	; 0x320
     c8c:	f8c3 232c 	str.w	r2, [r3, #812]	; 0x32c
     c90:	e8bd 07f0 	ldmia.w	sp!, {r4, r5, r6, r7, r8, r9, sl}
     c94:	4770      	bx	lr
     c96:	bf00      	nop
     c98:	00000000 	andeq	r0, r0, r0
     c9c:	41c80000 	bicmi	r0, r8, r0
     ca0:	3727c5ac 	strcc	ip, [r7, -ip, lsr #11]!
     ca4:	3b83126f 	blcc	fe0c5668 <LinearizeH+0xfe0ba080>
     ca8:	3c23d70a 	stccc	7, cr13, [r3], #-40	; 0xffffffd8
     cac:	38fba882 	ldmcc	fp!, {r1, r7, fp, sp, pc}^
     cb0:	3ba3d70a 	blcc	fe8f68e0 <LinearizeH+0xfe8eb2f8>
     cb4:	3e23d70a 	cdpcc	7, 2, cr13, cr3, cr10, {0}
     cb8:	3d23d70a 	stccc	7, cr13, [r3, #-40]!	; 0xffffffd8
     cbc:	40a00000 	adcmi	r0, r0, r0
     cc0:	3a83126f 	bcc	fe0c5684 <LinearizeH+0xfe0ba09c>
     cc4:	3749539c 			; <UNDEFINED> instruction: 0x3749539c

00000cc8 <INSResetP>:
     cc8:	b538      	push	{r3, r4, r5, lr}
     cca:	2500      	movs	r5, #0
     ccc:	4604      	mov	r4, r0
     cce:	4629      	mov	r1, r5
     cd0:	6800      	ldr	r0, [r0, #0]
     cd2:	f7ff fffe 	bl	0 <__aeabi_fcmpeq>
     cd6:	bb30      	cbnz	r0, d26 <INSResetP+0x5e>
     cd8:	4bd7      	ldr	r3, [pc, #860]	; (1038 <INSResetP+0x370>)
     cda:	641d      	str	r5, [r3, #64]	; 0x40
     cdc:	675d      	str	r5, [r3, #116]	; 0x74
     cde:	645d      	str	r5, [r3, #68]	; 0x44
     ce0:	f8c3 50a8 	str.w	r5, [r3, #168]	; 0xa8
     ce4:	649d      	str	r5, [r3, #72]	; 0x48
     ce6:	f8c3 50dc 	str.w	r5, [r3, #220]	; 0xdc
     cea:	64dd      	str	r5, [r3, #76]	; 0x4c
     cec:	f8c3 5110 	str.w	r5, [r3, #272]	; 0x110
     cf0:	651d      	str	r5, [r3, #80]	; 0x50
     cf2:	f8c3 5144 	str.w	r5, [r3, #324]	; 0x144
     cf6:	655d      	str	r5, [r3, #84]	; 0x54
     cf8:	f8c3 5178 	str.w	r5, [r3, #376]	; 0x178
     cfc:	659d      	str	r5, [r3, #88]	; 0x58
     cfe:	f8c3 51ac 	str.w	r5, [r3, #428]	; 0x1ac
     d02:	65dd      	str	r5, [r3, #92]	; 0x5c
     d04:	f8c3 51e0 	str.w	r5, [r3, #480]	; 0x1e0
     d08:	661d      	str	r5, [r3, #96]	; 0x60
     d0a:	f8c3 5214 	str.w	r5, [r3, #532]	; 0x214
     d0e:	665d      	str	r5, [r3, #100]	; 0x64
     d10:	f8c3 5248 	str.w	r5, [r3, #584]	; 0x248
     d14:	669d      	str	r5, [r3, #104]	; 0x68
     d16:	f8c3 527c 	str.w	r5, [r3, #636]	; 0x27c
     d1a:	66dd      	str	r5, [r3, #108]	; 0x6c
     d1c:	f8c3 52b0 	str.w	r5, [r3, #688]	; 0x2b0
     d20:	671d      	str	r5, [r3, #112]	; 0x70
     d22:	6822      	ldr	r2, [r4, #0]
     d24:	641a      	str	r2, [r3, #64]	; 0x40
     d26:	2500      	movs	r5, #0
     d28:	6860      	ldr	r0, [r4, #4]
     d2a:	4629      	mov	r1, r5
     d2c:	f7ff fffe 	bl	0 <__aeabi_fcmpeq>
     d30:	bb80      	cbnz	r0, d94 <INSResetP+0xcc>
     d32:	49c1      	ldr	r1, [pc, #772]	; (1038 <INSResetP+0x370>)
     d34:	678d      	str	r5, [r1, #120]	; 0x78
     d36:	644d      	str	r5, [r1, #68]	; 0x44
     d38:	674d      	str	r5, [r1, #116]	; 0x74
     d3a:	f8c1 50ac 	str.w	r5, [r1, #172]	; 0xac
     d3e:	67cd      	str	r5, [r1, #124]	; 0x7c
     d40:	f8c1 50e0 	str.w	r5, [r1, #224]	; 0xe0
     d44:	f8c1 5080 	str.w	r5, [r1, #128]	; 0x80
     d48:	f8c1 5114 	str.w	r5, [r1, #276]	; 0x114
     d4c:	f8c1 5084 	str.w	r5, [r1, #132]	; 0x84
     d50:	f8c1 5148 	str.w	r5, [r1, #328]	; 0x148
     d54:	f8c1 5088 	str.w	r5, [r1, #136]	; 0x88
     d58:	f8c1 517c 	str.w	r5, [r1, #380]	; 0x17c
     d5c:	f8c1 508c 	str.w	r5, [r1, #140]	; 0x8c
     d60:	f8c1 51b0 	str.w	r5, [r1, #432]	; 0x1b0
     d64:	f8c1 5090 	str.w	r5, [r1, #144]	; 0x90
     d68:	f8c1 51e4 	str.w	r5, [r1, #484]	; 0x1e4
     d6c:	f8c1 5094 	str.w	r5, [r1, #148]	; 0x94
     d70:	f8c1 5218 	str.w	r5, [r1, #536]	; 0x218
     d74:	f8c1 5098 	str.w	r5, [r1, #152]	; 0x98
     d78:	f8c1 524c 	str.w	r5, [r1, #588]	; 0x24c
     d7c:	f8c1 509c 	str.w	r5, [r1, #156]	; 0x9c
     d80:	f8c1 5280 	str.w	r5, [r1, #640]	; 0x280
     d84:	f8c1 50a0 	str.w	r5, [r1, #160]	; 0xa0
     d88:	f8c1 52b4 	str.w	r5, [r1, #692]	; 0x2b4
     d8c:	f8c1 50a4 	str.w	r5, [r1, #164]	; 0xa4
     d90:	6860      	ldr	r0, [r4, #4]
     d92:	6788      	str	r0, [r1, #120]	; 0x78
     d94:	2500      	movs	r5, #0
     d96:	68a0      	ldr	r0, [r4, #8]
     d98:	4629      	mov	r1, r5
     d9a:	f7ff fffe 	bl	0 <__aeabi_fcmpeq>
     d9e:	bb98      	cbnz	r0, e08 <INSResetP+0x140>
     da0:	4aa5      	ldr	r2, [pc, #660]	; (1038 <INSResetP+0x370>)
     da2:	f8c2 50b0 	str.w	r5, [r2, #176]	; 0xb0
     da6:	6495      	str	r5, [r2, #72]	; 0x48
     da8:	f8c2 50a8 	str.w	r5, [r2, #168]	; 0xa8
     dac:	67d5      	str	r5, [r2, #124]	; 0x7c
     dae:	f8c2 50ac 	str.w	r5, [r2, #172]	; 0xac
     db2:	f8c2 50e4 	str.w	r5, [r2, #228]	; 0xe4
     db6:	f8c2 50b4 	str.w	r5, [r2, #180]	; 0xb4
     dba:	f8c2 5118 	str.w	r5, [r2, #280]	; 0x118
     dbe:	f8c2 50b8 	str.w	r5, [r2, #184]	; 0xb8
     dc2:	f8c2 514c 	str.w	r5, [r2, #332]	; 0x14c
     dc6:	f8c2 50bc 	str.w	r5, [r2, #188]	; 0xbc
     dca:	f8c2 5180 	str.w	r5, [r2, #384]	; 0x180
     dce:	f8c2 50c0 	str.w	r5, [r2, #192]	; 0xc0
     dd2:	f8c2 51b4 	str.w	r5, [r2, #436]	; 0x1b4
     dd6:	f8c2 50c4 	str.w	r5, [r2, #196]	; 0xc4
     dda:	f8c2 51e8 	str.w	r5, [r2, #488]	; 0x1e8
     dde:	f8c2 50c8 	str.w	r5, [r2, #200]	; 0xc8
     de2:	f8c2 521c 	str.w	r5, [r2, #540]	; 0x21c
     de6:	f8c2 50cc 	str.w	r5, [r2, #204]	; 0xcc
     dea:	f8c2 5250 	str.w	r5, [r2, #592]	; 0x250
     dee:	f8c2 50d0 	str.w	r5, [r2, #208]	; 0xd0
     df2:	f8c2 5284 	str.w	r5, [r2, #644]	; 0x284
     df6:	f8c2 50d4 	str.w	r5, [r2, #212]	; 0xd4
     dfa:	f8c2 52b8 	str.w	r5, [r2, #696]	; 0x2b8
     dfe:	f8c2 50d8 	str.w	r5, [r2, #216]	; 0xd8
     e02:	68a5      	ldr	r5, [r4, #8]
     e04:	f8c2 50b0 	str.w	r5, [r2, #176]	; 0xb0
     e08:	2500      	movs	r5, #0
     e0a:	68e0      	ldr	r0, [r4, #12]
     e0c:	4629      	mov	r1, r5
     e0e:	f7ff fffe 	bl	0 <__aeabi_fcmpeq>
     e12:	bba8      	cbnz	r0, e80 <INSResetP+0x1b8>
     e14:	4b88      	ldr	r3, [pc, #544]	; (1038 <INSResetP+0x370>)
     e16:	f8c3 50e8 	str.w	r5, [r3, #232]	; 0xe8
     e1a:	64dd      	str	r5, [r3, #76]	; 0x4c
     e1c:	f8c3 50dc 	str.w	r5, [r3, #220]	; 0xdc
     e20:	f8c3 5080 	str.w	r5, [r3, #128]	; 0x80
     e24:	f8c3 50e0 	str.w	r5, [r3, #224]	; 0xe0
     e28:	f8c3 50b4 	str.w	r5, [r3, #180]	; 0xb4
     e2c:	f8c3 50e4 	str.w	r5, [r3, #228]	; 0xe4
     e30:	f8c3 511c 	str.w	r5, [r3, #284]	; 0x11c
     e34:	f8c3 50ec 	str.w	r5, [r3, #236]	; 0xec
     e38:	f8c3 5150 	str.w	r5, [r3, #336]	; 0x150
     e3c:	f8c3 50f0 	str.w	r5, [r3, #240]	; 0xf0
     e40:	f8c3 5184 	str.w	r5, [r3, #388]	; 0x184
     e44:	f8c3 50f4 	str.w	r5, [r3, #244]	; 0xf4
     e48:	f8c3 51b8 	str.w	r5, [r3, #440]	; 0x1b8
     e4c:	f8c3 50f8 	str.w	r5, [r3, #248]	; 0xf8
     e50:	f8c3 51ec 	str.w	r5, [r3, #492]	; 0x1ec
     e54:	f8c3 50fc 	str.w	r5, [r3, #252]	; 0xfc
     e58:	f8c3 5220 	str.w	r5, [r3, #544]	; 0x220
     e5c:	f8c3 5100 	str.w	r5, [r3, #256]	; 0x100
     e60:	f8c3 5254 	str.w	r5, [r3, #596]	; 0x254
     e64:	f8c3 5104 	str.w	r5, [r3, #260]	; 0x104
     e68:	f8c3 5288 	str.w	r5, [r3, #648]	; 0x288
     e6c:	f8c3 5108 	str.w	r5, [r3, #264]	; 0x108
     e70:	f8c3 52bc 	str.w	r5, [r3, #700]	; 0x2bc
     e74:	f8c3 510c 	str.w	r5, [r3, #268]	; 0x10c
     e78:	f8d4 c00c 	ldr.w	ip, [r4, #12]
     e7c:	f8c3 c0e8 	str.w	ip, [r3, #232]	; 0xe8
     e80:	2500      	movs	r5, #0
     e82:	6920      	ldr	r0, [r4, #16]
     e84:	4629      	mov	r1, r5
     e86:	f7ff fffe 	bl	0 <__aeabi_fcmpeq>
     e8a:	bba8      	cbnz	r0, ef8 <INSResetP+0x230>
     e8c:	486a      	ldr	r0, [pc, #424]	; (1038 <INSResetP+0x370>)
     e8e:	f8c0 5120 	str.w	r5, [r0, #288]	; 0x120
     e92:	6505      	str	r5, [r0, #80]	; 0x50
     e94:	f8c0 5110 	str.w	r5, [r0, #272]	; 0x110
     e98:	f8c0 5084 	str.w	r5, [r0, #132]	; 0x84
     e9c:	f8c0 5114 	str.w	r5, [r0, #276]	; 0x114
     ea0:	f8c0 50b8 	str.w	r5, [r0, #184]	; 0xb8
     ea4:	f8c0 5118 	str.w	r5, [r0, #280]	; 0x118
     ea8:	f8c0 50ec 	str.w	r5, [r0, #236]	; 0xec
     eac:	f8c0 511c 	str.w	r5, [r0, #284]	; 0x11c
     eb0:	f8c0 5154 	str.w	r5, [r0, #340]	; 0x154
     eb4:	f8c0 5124 	str.w	r5, [r0, #292]	; 0x124
     eb8:	f8c0 5188 	str.w	r5, [r0, #392]	; 0x188
     ebc:	f8c0 5128 	str.w	r5, [r0, #296]	; 0x128
     ec0:	f8c0 51bc 	str.w	r5, [r0, #444]	; 0x1bc
     ec4:	f8c0 512c 	str.w	r5, [r0, #300]	; 0x12c
     ec8:	f8c0 51f0 	str.w	r5, [r0, #496]	; 0x1f0
     ecc:	f8c0 5130 	str.w	r5, [r0, #304]	; 0x130
     ed0:	f8c0 5224 	str.w	r5, [r0, #548]	; 0x224
     ed4:	f8c0 5134 	str.w	r5, [r0, #308]	; 0x134
     ed8:	f8c0 5258 	str.w	r5, [r0, #600]	; 0x258
     edc:	f8c0 5138 	str.w	r5, [r0, #312]	; 0x138
     ee0:	f8c0 528c 	str.w	r5, [r0, #652]	; 0x28c
     ee4:	f8c0 513c 	str.w	r5, [r0, #316]	; 0x13c
     ee8:	f8c0 52c0 	str.w	r5, [r0, #704]	; 0x2c0
     eec:	f8c0 5140 	str.w	r5, [r0, #320]	; 0x140
     ef0:	f8d4 e010 	ldr.w	lr, [r4, #16]
     ef4:	f8c0 e120 	str.w	lr, [r0, #288]	; 0x120
     ef8:	2500      	movs	r5, #0
     efa:	6960      	ldr	r0, [r4, #20]
     efc:	4629      	mov	r1, r5
     efe:	f7ff fffe 	bl	0 <__aeabi_fcmpeq>
     f02:	bba0      	cbnz	r0, f6e <INSResetP+0x2a6>
     f04:	4a4c      	ldr	r2, [pc, #304]	; (1038 <INSResetP+0x370>)
     f06:	f8c2 5158 	str.w	r5, [r2, #344]	; 0x158
     f0a:	6555      	str	r5, [r2, #84]	; 0x54
     f0c:	f8c2 5144 	str.w	r5, [r2, #324]	; 0x144
     f10:	f8c2 5088 	str.w	r5, [r2, #136]	; 0x88
     f14:	f8c2 5148 	str.w	r5, [r2, #328]	; 0x148
     f18:	f8c2 50bc 	str.w	r5, [r2, #188]	; 0xbc
     f1c:	f8c2 514c 	str.w	r5, [r2, #332]	; 0x14c
     f20:	f8c2 50f0 	str.w	r5, [r2, #240]	; 0xf0
     f24:	f8c2 5150 	str.w	r5, [r2, #336]	; 0x150
     f28:	f8c2 5124 	str.w	r5, [r2, #292]	; 0x124
     f2c:	f8c2 5154 	str.w	r5, [r2, #340]	; 0x154
     f30:	f8c2 518c 	str.w	r5, [r2, #396]	; 0x18c
     f34:	f8c2 515c 	str.w	r5, [r2, #348]	; 0x15c
     f38:	f8c2 51c0 	str.w	r5, [r2, #448]	; 0x1c0
     f3c:	f8c2 5160 	str.w	r5, [r2, #352]	; 0x160
     f40:	f8c2 51f4 	str.w	r5, [r2, #500]	; 0x1f4
     f44:	f8c2 5164 	str.w	r5, [r2, #356]	; 0x164
     f48:	f8c2 5228 	str.w	r5, [r2, #552]	; 0x228
     f4c:	f8c2 5168 	str.w	r5, [r2, #360]	; 0x168
     f50:	f8c2 525c 	str.w	r5, [r2, #604]	; 0x25c
     f54:	f8c2 516c 	str.w	r5, [r2, #364]	; 0x16c
     f58:	f8c2 5290 	str.w	r5, [r2, #656]	; 0x290
     f5c:	f8c2 5170 	str.w	r5, [r2, #368]	; 0x170
     f60:	f8c2 52c4 	str.w	r5, [r2, #708]	; 0x2c4
     f64:	f8c2 5174 	str.w	r5, [r2, #372]	; 0x174
     f68:	6961      	ldr	r1, [r4, #20]
     f6a:	f8c2 1158 	str.w	r1, [r2, #344]	; 0x158
     f6e:	2500      	movs	r5, #0
     f70:	69a0      	ldr	r0, [r4, #24]
     f72:	4629      	mov	r1, r5
     f74:	f7ff fffe 	bl	0 <__aeabi_fcmpeq>
     f78:	bba0      	cbnz	r0, fe4 <INSResetP+0x31c>
     f7a:	4b2f      	ldr	r3, [pc, #188]	; (1038 <INSResetP+0x370>)
     f7c:	f8c3 5190 	str.w	r5, [r3, #400]	; 0x190
     f80:	659d      	str	r5, [r3, #88]	; 0x58
     f82:	f8c3 5178 	str.w	r5, [r3, #376]	; 0x178
     f86:	f8c3 508c 	str.w	r5, [r3, #140]	; 0x8c
     f8a:	f8c3 517c 	str.w	r5, [r3, #380]	; 0x17c
     f8e:	f8c3 50c0 	str.w	r5, [r3, #192]	; 0xc0
     f92:	f8c3 5180 	str.w	r5, [r3, #384]	; 0x180
     f96:	f8c3 50f4 	str.w	r5, [r3, #244]	; 0xf4
     f9a:	f8c3 5184 	str.w	r5, [r3, #388]	; 0x184
     f9e:	f8c3 5128 	str.w	r5, [r3, #296]	; 0x128
     fa2:	f8c3 5188 	str.w	r5, [r3, #392]	; 0x188
     fa6:	f8c3 515c 	str.w	r5, [r3, #348]	; 0x15c
     faa:	f8c3 518c 	str.w	r5, [r3, #396]	; 0x18c
     fae:	f8c3 51c4 	str.w	r5, [r3, #452]	; 0x1c4
     fb2:	f8c3 5194 	str.w	r5, [r3, #404]	; 0x194
     fb6:	f8c3 51f8 	str.w	r5, [r3, #504]	; 0x1f8
     fba:	f8c3 5198 	str.w	r5, [r3, #408]	; 0x198
     fbe:	f8c3 522c 	str.w	r5, [r3, #556]	; 0x22c
     fc2:	f8c3 519c 	str.w	r5, [r3, #412]	; 0x19c
     fc6:	f8c3 5260 	str.w	r5, [r3, #608]	; 0x260
     fca:	f8c3 51a0 	str.w	r5, [r3, #416]	; 0x1a0
     fce:	f8c3 5294 	str.w	r5, [r3, #660]	; 0x294
     fd2:	f8c3 51a4 	str.w	r5, [r3, #420]	; 0x1a4
     fd6:	f8c3 52c8 	str.w	r5, [r3, #712]	; 0x2c8
     fda:	f8c3 51a8 	str.w	r5, [r3, #424]	; 0x1a8
     fde:	69a5      	ldr	r5, [r4, #24]
     fe0:	f8c3 5190 	str.w	r5, [r3, #400]	; 0x190
     fe4:	2500      	movs	r5, #0
     fe6:	69e0      	ldr	r0, [r4, #28]
     fe8:	4629      	mov	r1, r5
     fea:	f7ff fffe 	bl	0 <__aeabi_fcmpeq>
     fee:	bbc8      	cbnz	r0, 1064 <INSResetP+0x39c>
     ff0:	4811      	ldr	r0, [pc, #68]	; (1038 <INSResetP+0x370>)
     ff2:	f8c0 51c8 	str.w	r5, [r0, #456]	; 0x1c8
     ff6:	65c5      	str	r5, [r0, #92]	; 0x5c
     ff8:	f8c0 51ac 	str.w	r5, [r0, #428]	; 0x1ac
     ffc:	f8c0 5090 	str.w	r5, [r0, #144]	; 0x90
    1000:	f8c0 51b0 	str.w	r5, [r0, #432]	; 0x1b0
    1004:	f8c0 50c4 	str.w	r5, [r0, #196]	; 0xc4
    1008:	f8c0 51b4 	str.w	r5, [r0, #436]	; 0x1b4
    100c:	f8c0 50f8 	str.w	r5, [r0, #248]	; 0xf8
    1010:	f8c0 51b8 	str.w	r5, [r0, #440]	; 0x1b8
    1014:	f8c0 512c 	str.w	r5, [r0, #300]	; 0x12c
    1018:	f8c0 51bc 	str.w	r5, [r0, #444]	; 0x1bc
    101c:	f8c0 5160 	str.w	r5, [r0, #352]	; 0x160
    1020:	f8c0 51c0 	str.w	r5, [r0, #448]	; 0x1c0
    1024:	f8c0 5194 	str.w	r5, [r0, #404]	; 0x194
    1028:	f8c0 51c4 	str.w	r5, [r0, #452]	; 0x1c4
    102c:	f8c0 51fc 	str.w	r5, [r0, #508]	; 0x1fc
    1030:	f8c0 51cc 	str.w	r5, [r0, #460]	; 0x1cc
    1034:	e002      	b.n	103c <INSResetP+0x374>
    1036:	bf00      	nop
    1038:	00000000 	andeq	r0, r0, r0
    103c:	f8c0 5230 	str.w	r5, [r0, #560]	; 0x230
    1040:	f8c0 51d0 	str.w	r5, [r0, #464]	; 0x1d0
    1044:	f8c0 5264 	str.w	r5, [r0, #612]	; 0x264
    1048:	f8c0 51d4 	str.w	r5, [r0, #468]	; 0x1d4
    104c:	f8c0 5298 	str.w	r5, [r0, #664]	; 0x298
    1050:	f8c0 51d8 	str.w	r5, [r0, #472]	; 0x1d8
    1054:	f8c0 52cc 	str.w	r5, [r0, #716]	; 0x2cc
    1058:	f8c0 51dc 	str.w	r5, [r0, #476]	; 0x1dc
    105c:	f8d4 c01c 	ldr.w	ip, [r4, #28]
    1060:	f8c0 c1c8 	str.w	ip, [r0, #456]	; 0x1c8
    1064:	2500      	movs	r5, #0
    1066:	6a20      	ldr	r0, [r4, #32]
    1068:	4629      	mov	r1, r5
    106a:	f7ff fffe 	bl	0 <__aeabi_fcmpeq>
    106e:	bba8      	cbnz	r0, 10dc <INSResetP+0x414>
    1070:	4992      	ldr	r1, [pc, #584]	; (12bc <INSResetP+0x5f4>)
    1072:	f8c1 5200 	str.w	r5, [r1, #512]	; 0x200
    1076:	660d      	str	r5, [r1, #96]	; 0x60
    1078:	f8c1 51e0 	str.w	r5, [r1, #480]	; 0x1e0
    107c:	f8c1 5094 	str.w	r5, [r1, #148]	; 0x94
    1080:	f8c1 51e4 	str.w	r5, [r1, #484]	; 0x1e4
    1084:	f8c1 50c8 	str.w	r5, [r1, #200]	; 0xc8
    1088:	f8c1 51e8 	str.w	r5, [r1, #488]	; 0x1e8
    108c:	f8c1 50fc 	str.w	r5, [r1, #252]	; 0xfc
    1090:	f8c1 51ec 	str.w	r5, [r1, #492]	; 0x1ec
    1094:	f8c1 5130 	str.w	r5, [r1, #304]	; 0x130
    1098:	f8c1 51f0 	str.w	r5, [r1, #496]	; 0x1f0
    109c:	f8c1 5164 	str.w	r5, [r1, #356]	; 0x164
    10a0:	f8c1 51f4 	str.w	r5, [r1, #500]	; 0x1f4
    10a4:	f8c1 5198 	str.w	r5, [r1, #408]	; 0x198
    10a8:	f8c1 51f8 	str.w	r5, [r1, #504]	; 0x1f8
    10ac:	f8c1 51cc 	str.w	r5, [r1, #460]	; 0x1cc
    10b0:	f8c1 51fc 	str.w	r5, [r1, #508]	; 0x1fc
    10b4:	f8c1 5234 	str.w	r5, [r1, #564]	; 0x234
    10b8:	f8c1 5204 	str.w	r5, [r1, #516]	; 0x204
    10bc:	f8c1 5268 	str.w	r5, [r1, #616]	; 0x268
    10c0:	f8c1 5208 	str.w	r5, [r1, #520]	; 0x208
    10c4:	f8c1 529c 	str.w	r5, [r1, #668]	; 0x29c
    10c8:	f8c1 520c 	str.w	r5, [r1, #524]	; 0x20c
    10cc:	f8c1 52d0 	str.w	r5, [r1, #720]	; 0x2d0
    10d0:	f8c1 5210 	str.w	r5, [r1, #528]	; 0x210
    10d4:	f8d4 e020 	ldr.w	lr, [r4, #32]
    10d8:	f8c1 e200 	str.w	lr, [r1, #512]	; 0x200
    10dc:	2500      	movs	r5, #0
    10de:	6a60      	ldr	r0, [r4, #36]	; 0x24
    10e0:	4629      	mov	r1, r5
    10e2:	f7ff fffe 	bl	0 <__aeabi_fcmpeq>
    10e6:	bba0      	cbnz	r0, 1152 <INSResetP+0x48a>
    10e8:	4b74      	ldr	r3, [pc, #464]	; (12bc <INSResetP+0x5f4>)
    10ea:	f8c3 5238 	str.w	r5, [r3, #568]	; 0x238
    10ee:	665d      	str	r5, [r3, #100]	; 0x64
    10f0:	f8c3 5214 	str.w	r5, [r3, #532]	; 0x214
    10f4:	f8c3 5098 	str.w	r5, [r3, #152]	; 0x98
    10f8:	f8c3 5218 	str.w	r5, [r3, #536]	; 0x218
    10fc:	f8c3 50cc 	str.w	r5, [r3, #204]	; 0xcc
    1100:	f8c3 521c 	str.w	r5, [r3, #540]	; 0x21c
    1104:	f8c3 5100 	str.w	r5, [r3, #256]	; 0x100
    1108:	f8c3 5220 	str.w	r5, [r3, #544]	; 0x220
    110c:	f8c3 5134 	str.w	r5, [r3, #308]	; 0x134
    1110:	f8c3 5224 	str.w	r5, [r3, #548]	; 0x224
    1114:	f8c3 5168 	str.w	r5, [r3, #360]	; 0x168
    1118:	f8c3 5228 	str.w	r5, [r3, #552]	; 0x228
    111c:	f8c3 519c 	str.w	r5, [r3, #412]	; 0x19c
    1120:	f8c3 522c 	str.w	r5, [r3, #556]	; 0x22c
    1124:	f8c3 51d0 	str.w	r5, [r3, #464]	; 0x1d0
    1128:	f8c3 5230 	str.w	r5, [r3, #560]	; 0x230
    112c:	f8c3 5204 	str.w	r5, [r3, #516]	; 0x204
    1130:	f8c3 5234 	str.w	r5, [r3, #564]	; 0x234
    1134:	f8c3 526c 	str.w	r5, [r3, #620]	; 0x26c
    1138:	f8c3 523c 	str.w	r5, [r3, #572]	; 0x23c
    113c:	f8c3 52a0 	str.w	r5, [r3, #672]	; 0x2a0
    1140:	f8c3 5240 	str.w	r5, [r3, #576]	; 0x240
    1144:	f8c3 52d4 	str.w	r5, [r3, #724]	; 0x2d4
    1148:	f8c3 5244 	str.w	r5, [r3, #580]	; 0x244
    114c:	6a62      	ldr	r2, [r4, #36]	; 0x24
    114e:	f8c3 2238 	str.w	r2, [r3, #568]	; 0x238
    1152:	2500      	movs	r5, #0
    1154:	6aa0      	ldr	r0, [r4, #40]	; 0x28
    1156:	4629      	mov	r1, r5
    1158:	f7ff fffe 	bl	0 <__aeabi_fcmpeq>
    115c:	bba0      	cbnz	r0, 11c8 <INSResetP+0x500>
    115e:	4857      	ldr	r0, [pc, #348]	; (12bc <INSResetP+0x5f4>)
    1160:	f8c0 5270 	str.w	r5, [r0, #624]	; 0x270
    1164:	6685      	str	r5, [r0, #104]	; 0x68
    1166:	f8c0 5248 	str.w	r5, [r0, #584]	; 0x248
    116a:	f8c0 509c 	str.w	r5, [r0, #156]	; 0x9c
    116e:	f8c0 524c 	str.w	r5, [r0, #588]	; 0x24c
    1172:	f8c0 50d0 	str.w	r5, [r0, #208]	; 0xd0
    1176:	f8c0 5250 	str.w	r5, [r0, #592]	; 0x250
    117a:	f8c0 5104 	str.w	r5, [r0, #260]	; 0x104
    117e:	f8c0 5254 	str.w	r5, [r0, #596]	; 0x254
    1182:	f8c0 5138 	str.w	r5, [r0, #312]	; 0x138
    1186:	f8c0 5258 	str.w	r5, [r0, #600]	; 0x258
    118a:	f8c0 516c 	str.w	r5, [r0, #364]	; 0x16c
    118e:	f8c0 525c 	str.w	r5, [r0, #604]	; 0x25c
    1192:	f8c0 51a0 	str.w	r5, [r0, #416]	; 0x1a0
    1196:	f8c0 5260 	str.w	r5, [r0, #608]	; 0x260
    119a:	f8c0 51d4 	str.w	r5, [r0, #468]	; 0x1d4
    119e:	f8c0 5264 	str.w	r5, [r0, #612]	; 0x264
    11a2:	f8c0 5208 	str.w	r5, [r0, #520]	; 0x208
    11a6:	f8c0 5268 	str.w	r5, [r0, #616]	; 0x268
    11aa:	f8c0 523c 	str.w	r5, [r0, #572]	; 0x23c
    11ae:	f8c0 526c 	str.w	r5, [r0, #620]	; 0x26c
    11b2:	f8c0 52a4 	str.w	r5, [r0, #676]	; 0x2a4
    11b6:	f8c0 5274 	str.w	r5, [r0, #628]	; 0x274
    11ba:	f8c0 52d8 	str.w	r5, [r0, #728]	; 0x2d8
    11be:	f8c0 5278 	str.w	r5, [r0, #632]	; 0x278
    11c2:	6aa5      	ldr	r5, [r4, #40]	; 0x28
    11c4:	f8c0 5270 	str.w	r5, [r0, #624]	; 0x270
    11c8:	2500      	movs	r5, #0
    11ca:	6ae0      	ldr	r0, [r4, #44]	; 0x2c
    11cc:	4629      	mov	r1, r5
    11ce:	f7ff fffe 	bl	0 <__aeabi_fcmpeq>
    11d2:	bba8      	cbnz	r0, 1240 <INSResetP+0x578>
    11d4:	4939      	ldr	r1, [pc, #228]	; (12bc <INSResetP+0x5f4>)
    11d6:	f8c1 52a8 	str.w	r5, [r1, #680]	; 0x2a8
    11da:	66cd      	str	r5, [r1, #108]	; 0x6c
    11dc:	f8c1 527c 	str.w	r5, [r1, #636]	; 0x27c
    11e0:	f8c1 50a0 	str.w	r5, [r1, #160]	; 0xa0
    11e4:	f8c1 5280 	str.w	r5, [r1, #640]	; 0x280
    11e8:	f8c1 50d4 	str.w	r5, [r1, #212]	; 0xd4
    11ec:	f8c1 5284 	str.w	r5, [r1, #644]	; 0x284
    11f0:	f8c1 5108 	str.w	r5, [r1, #264]	; 0x108
    11f4:	f8c1 5288 	str.w	r5, [r1, #648]	; 0x288
    11f8:	f8c1 513c 	str.w	r5, [r1, #316]	; 0x13c
    11fc:	f8c1 528c 	str.w	r5, [r1, #652]	; 0x28c
    1200:	f8c1 5170 	str.w	r5, [r1, #368]	; 0x170
    1204:	f8c1 5290 	str.w	r5, [r1, #656]	; 0x290
    1208:	f8c1 51a4 	str.w	r5, [r1, #420]	; 0x1a4
    120c:	f8c1 5294 	str.w	r5, [r1, #660]	; 0x294
    1210:	f8c1 51d8 	str.w	r5, [r1, #472]	; 0x1d8
    1214:	f8c1 5298 	str.w	r5, [r1, #664]	; 0x298
    1218:	f8c1 520c 	str.w	r5, [r1, #524]	; 0x20c
    121c:	f8c1 529c 	str.w	r5, [r1, #668]	; 0x29c
    1220:	f8c1 5240 	str.w	r5, [r1, #576]	; 0x240
    1224:	f8c1 52a0 	str.w	r5, [r1, #672]	; 0x2a0
    1228:	f8c1 5274 	str.w	r5, [r1, #628]	; 0x274
    122c:	f8c1 52a4 	str.w	r5, [r1, #676]	; 0x2a4
    1230:	f8c1 52dc 	str.w	r5, [r1, #732]	; 0x2dc
    1234:	f8c1 52ac 	str.w	r5, [r1, #684]	; 0x2ac
    1238:	f8d4 c02c 	ldr.w	ip, [r4, #44]	; 0x2c
    123c:	f8c1 c2a8 	str.w	ip, [r1, #680]	; 0x2a8
    1240:	2500      	movs	r5, #0
    1242:	6b20      	ldr	r0, [r4, #48]	; 0x30
    1244:	4629      	mov	r1, r5
    1246:	f7ff fffe 	bl	0 <__aeabi_fcmpeq>
    124a:	bba8      	cbnz	r0, 12b8 <INSResetP+0x5f0>
    124c:	4a1b      	ldr	r2, [pc, #108]	; (12bc <INSResetP+0x5f4>)
    124e:	f8c2 52e0 	str.w	r5, [r2, #736]	; 0x2e0
    1252:	6715      	str	r5, [r2, #112]	; 0x70
    1254:	f8c2 52b0 	str.w	r5, [r2, #688]	; 0x2b0
    1258:	f8c2 50a4 	str.w	r5, [r2, #164]	; 0xa4
    125c:	f8c2 52b4 	str.w	r5, [r2, #692]	; 0x2b4
    1260:	f8c2 50d8 	str.w	r5, [r2, #216]	; 0xd8
    1264:	f8c2 52b8 	str.w	r5, [r2, #696]	; 0x2b8
    1268:	f8c2 510c 	str.w	r5, [r2, #268]	; 0x10c
    126c:	f8c2 52bc 	str.w	r5, [r2, #700]	; 0x2bc
    1270:	f8c2 5140 	str.w	r5, [r2, #320]	; 0x140
    1274:	f8c2 52c0 	str.w	r5, [r2, #704]	; 0x2c0
    1278:	f8c2 5174 	str.w	r5, [r2, #372]	; 0x174
    127c:	f8c2 52c4 	str.w	r5, [r2, #708]	; 0x2c4
    1280:	f8c2 51a8 	str.w	r5, [r2, #424]	; 0x1a8
    1284:	f8c2 52c8 	str.w	r5, [r2, #712]	; 0x2c8
    1288:	f8c2 51dc 	str.w	r5, [r2, #476]	; 0x1dc
    128c:	f8c2 52cc 	str.w	r5, [r2, #716]	; 0x2cc
    1290:	f8c2 5210 	str.w	r5, [r2, #528]	; 0x210
    1294:	f8c2 52d0 	str.w	r5, [r2, #720]	; 0x2d0
    1298:	f8c2 5244 	str.w	r5, [r2, #580]	; 0x244
    129c:	f8c2 52d4 	str.w	r5, [r2, #724]	; 0x2d4
    12a0:	f8c2 5278 	str.w	r5, [r2, #632]	; 0x278
    12a4:	f8c2 52d8 	str.w	r5, [r2, #728]	; 0x2d8
    12a8:	f8c2 52ac 	str.w	r5, [r2, #684]	; 0x2ac
    12ac:	f8c2 52dc 	str.w	r5, [r2, #732]	; 0x2dc
    12b0:	f8d4 e030 	ldr.w	lr, [r4, #48]	; 0x30
    12b4:	f8c2 e2e0 	str.w	lr, [r2, #736]	; 0x2e0
    12b8:	bd38      	pop	{r3, r4, r5, pc}
    12ba:	bf00      	nop
    12bc:	00000000 	andeq	r0, r0, r0

000012c0 <INSResetRGPS>:
    12c0:	6802      	ldr	r2, [r0, #0]
    12c2:	4b09      	ldr	r3, [pc, #36]	; (12e8 <INSResetRGPS+0x28>)
    12c4:	f8c3 230c 	str.w	r2, [r3, #780]	; 0x30c
    12c8:	f8c3 2308 	str.w	r2, [r3, #776]	; 0x308
    12cc:	f8d0 c004 	ldr.w	ip, [r0, #4]
    12d0:	f8c3 c310 	str.w	ip, [r3, #784]	; 0x310
    12d4:	6881      	ldr	r1, [r0, #8]
    12d6:	f8c3 1318 	str.w	r1, [r3, #792]	; 0x318
    12da:	f8c3 1314 	str.w	r1, [r3, #788]	; 0x314
    12de:	68c2      	ldr	r2, [r0, #12]
    12e0:	f8c3 231c 	str.w	r2, [r3, #796]	; 0x31c
    12e4:	4770      	bx	lr
    12e6:	bf00      	nop
    12e8:	00000000 	andeq	r0, r0, r0

000012ec <INSSetState>:
    12ec:	b430      	push	{r4, r5}
    12ee:	6805      	ldr	r5, [r0, #0]
    12f0:	4c10      	ldr	r4, [pc, #64]	; (1334 <INSSetState+0x48>)
    12f2:	6025      	str	r5, [r4, #0]
    12f4:	6845      	ldr	r5, [r0, #4]
    12f6:	6065      	str	r5, [r4, #4]
    12f8:	6880      	ldr	r0, [r0, #8]
    12fa:	60a0      	str	r0, [r4, #8]
    12fc:	f8d1 c000 	ldr.w	ip, [r1]
    1300:	f8c4 c00c 	str.w	ip, [r4, #12]
    1304:	6848      	ldr	r0, [r1, #4]
    1306:	6120      	str	r0, [r4, #16]
    1308:	f8d1 c008 	ldr.w	ip, [r1, #8]
    130c:	f8c4 c014 	str.w	ip, [r4, #20]
    1310:	6811      	ldr	r1, [r2, #0]
    1312:	61a1      	str	r1, [r4, #24]
    1314:	6850      	ldr	r0, [r2, #4]
    1316:	61e0      	str	r0, [r4, #28]
    1318:	f8d2 c008 	ldr.w	ip, [r2, #8]
    131c:	f8c4 c020 	str.w	ip, [r4, #32]
    1320:	68d1      	ldr	r1, [r2, #12]
    1322:	6261      	str	r1, [r4, #36]	; 0x24
    1324:	6818      	ldr	r0, [r3, #0]
    1326:	62a0      	str	r0, [r4, #40]	; 0x28
    1328:	685a      	ldr	r2, [r3, #4]
    132a:	62e2      	str	r2, [r4, #44]	; 0x2c
    132c:	689b      	ldr	r3, [r3, #8]
    132e:	6323      	str	r3, [r4, #48]	; 0x30
    1330:	bc30      	pop	{r4, r5}
    1332:	4770      	bx	lr
    1334:	00000000 	andeq	r0, r0, r0

00001338 <INSPosVelReset>:
    1338:	4b3e      	ldr	r3, [pc, #248]	; (1434 <INSPosVelReset+0xfc>)
    133a:	b4f0      	push	{r4, r5, r6, r7}
    133c:	f1a3 0c30 	sub.w	ip, r3, #48	; 0x30
    1340:	2700      	movs	r7, #0
    1342:	2200      	movs	r2, #0
    1344:	2f0c      	cmp	r7, #12
    1346:	dc51      	bgt.n	13ec <INSPosVelReset+0xb4>
    1348:	ebc7 05c7 	rsb	r5, r7, r7, lsl #3
    134c:	eb0c 04c5 	add.w	r4, ip, r5, lsl #3
    1350:	1b1e      	subs	r6, r3, r4
    1352:	429c      	cmp	r4, r3
    1354:	f84c 2035 	str.w	r2, [ip, r5, lsl #3]
    1358:	f3c6 0682 	ubfx	r6, r6, #2, #3
    135c:	f104 0534 	add.w	r5, r4, #52	; 0x34
    1360:	d044      	beq.n	13ec <INSPosVelReset+0xb4>
    1362:	b34e      	cbz	r6, 13b8 <INSPosVelReset+0x80>
    1364:	2e01      	cmp	r6, #1
    1366:	d021      	beq.n	13ac <INSPosVelReset+0x74>
    1368:	2e02      	cmp	r6, #2
    136a:	d01b      	beq.n	13a4 <INSPosVelReset+0x6c>
    136c:	2e03      	cmp	r6, #3
    136e:	d015      	beq.n	139c <INSPosVelReset+0x64>
    1370:	2e04      	cmp	r6, #4
    1372:	d00f      	beq.n	1394 <INSPosVelReset+0x5c>
    1374:	2e05      	cmp	r6, #5
    1376:	d009      	beq.n	138c <INSPosVelReset+0x54>
    1378:	2e06      	cmp	r6, #6
    137a:	bf1c      	itt	ne
    137c:	f844 2f04 	strne.w	r2, [r4, #4]!
    1380:	f845 2b34 	strne.w	r2, [r5], #52
    1384:	f844 2f04 	str.w	r2, [r4, #4]!
    1388:	f845 2b34 	str.w	r2, [r5], #52
    138c:	f844 2f04 	str.w	r2, [r4, #4]!
    1390:	f845 2b34 	str.w	r2, [r5], #52
    1394:	f844 2f04 	str.w	r2, [r4, #4]!
    1398:	f845 2b34 	str.w	r2, [r5], #52
    139c:	f844 2f04 	str.w	r2, [r4, #4]!
    13a0:	f845 2b34 	str.w	r2, [r5], #52
    13a4:	f844 2f04 	str.w	r2, [r4, #4]!
    13a8:	f845 2b34 	str.w	r2, [r5], #52
    13ac:	f844 2f04 	str.w	r2, [r4, #4]!
    13b0:	429c      	cmp	r4, r3
    13b2:	f845 2b34 	str.w	r2, [r5], #52
    13b6:	d019      	beq.n	13ec <INSPosVelReset+0xb4>
    13b8:	6062      	str	r2, [r4, #4]
    13ba:	602a      	str	r2, [r5, #0]
    13bc:	60a2      	str	r2, [r4, #8]
    13be:	636a      	str	r2, [r5, #52]	; 0x34
    13c0:	60e2      	str	r2, [r4, #12]
    13c2:	66aa      	str	r2, [r5, #104]	; 0x68
    13c4:	6122      	str	r2, [r4, #16]
    13c6:	f8c5 209c 	str.w	r2, [r5, #156]	; 0x9c
    13ca:	6162      	str	r2, [r4, #20]
    13cc:	f8c5 20d0 	str.w	r2, [r5, #208]	; 0xd0
    13d0:	61a2      	str	r2, [r4, #24]
    13d2:	f8c5 2104 	str.w	r2, [r5, #260]	; 0x104
    13d6:	61e2      	str	r2, [r4, #28]
    13d8:	f8c5 2138 	str.w	r2, [r5, #312]	; 0x138
    13dc:	f844 2f20 	str.w	r2, [r4, #32]!
    13e0:	429c      	cmp	r4, r3
    13e2:	f8c5 216c 	str.w	r2, [r5, #364]	; 0x16c
    13e6:	f505 75d0 	add.w	r5, r5, #416	; 0x1a0
    13ea:	d1e5      	bne.n	13b8 <INSPosVelReset+0x80>
    13ec:	3701      	adds	r7, #1
    13ee:	3334      	adds	r3, #52	; 0x34
    13f0:	2f06      	cmp	r7, #6
    13f2:	d1a7      	bne.n	1344 <INSPosVelReset+0xc>
    13f4:	4b10      	ldr	r3, [pc, #64]	; (1438 <INSPosVelReset+0x100>)
    13f6:	4a11      	ldr	r2, [pc, #68]	; (143c <INSPosVelReset+0x104>)
    13f8:	4c11      	ldr	r4, [pc, #68]	; (1440 <INSPosVelReset+0x108>)
    13fa:	f8c3 2158 	str.w	r2, [r3, #344]	; 0x158
    13fe:	f8c3 40b0 	str.w	r4, [r3, #176]	; 0xb0
    1402:	679c      	str	r4, [r3, #120]	; 0x78
    1404:	641c      	str	r4, [r3, #64]	; 0x40
    1406:	f8c3 2120 	str.w	r2, [r3, #288]	; 0x120
    140a:	f8c3 20e8 	str.w	r2, [r3, #232]	; 0xe8
    140e:	6802      	ldr	r2, [r0, #0]
    1410:	601a      	str	r2, [r3, #0]
    1412:	f8d0 c004 	ldr.w	ip, [r0, #4]
    1416:	f8c3 c004 	str.w	ip, [r3, #4]
    141a:	6882      	ldr	r2, [r0, #8]
    141c:	609a      	str	r2, [r3, #8]
    141e:	f8d1 c000 	ldr.w	ip, [r1]
    1422:	f8c3 c00c 	str.w	ip, [r3, #12]
    1426:	6848      	ldr	r0, [r1, #4]
    1428:	6118      	str	r0, [r3, #16]
    142a:	688a      	ldr	r2, [r1, #8]
    142c:	615a      	str	r2, [r3, #20]
    142e:	bcf0      	pop	{r4, r5, r6, r7}
    1430:	4770      	bx	lr
    1432:	bf00      	nop
    1434:	00000070 	andeq	r0, r0, r0, ror r0
    1438:	00000000 	andeq	r0, r0, r0
    143c:	40a00000 	adcmi	r0, r0, r0
    1440:	41c80000 	bicmi	r0, r8, r0

00001444 <INSSetPosVelVar>:
    1444:	4b06      	ldr	r3, [pc, #24]	; (1460 <INSSetPosVelVar+0x1c>)
    1446:	f8c3 0308 	str.w	r0, [r3, #776]	; 0x308
    144a:	f8c3 030c 	str.w	r0, [r3, #780]	; 0x30c
    144e:	f8c3 0310 	str.w	r0, [r3, #784]	; 0x310
    1452:	f8c3 1314 	str.w	r1, [r3, #788]	; 0x314
    1456:	f8c3 1318 	str.w	r1, [r3, #792]	; 0x318
    145a:	f8c3 031c 	str.w	r0, [r3, #796]	; 0x31c
    145e:	4770      	bx	lr
    1460:	00000000 	andeq	r0, r0, r0

00001464 <INSSetGyroBias>:
    1464:	4b04      	ldr	r3, [pc, #16]	; (1478 <INSSetGyroBias+0x14>)
    1466:	f8d0 c000 	ldr.w	ip, [r0]
    146a:	f8c3 c028 	str.w	ip, [r3, #40]	; 0x28
    146e:	6841      	ldr	r1, [r0, #4]
    1470:	62d9      	str	r1, [r3, #44]	; 0x2c
    1472:	6882      	ldr	r2, [r0, #8]
    1474:	631a      	str	r2, [r3, #48]	; 0x30
    1476:	4770      	bx	lr
    1478:	00000000 	andeq	r0, r0, r0

0000147c <INSSetAccelVar>:
    147c:	4b05      	ldr	r3, [pc, #20]	; (1494 <INSSetAccelVar+0x18>)
    147e:	f8d0 c000 	ldr.w	ip, [r0]
    1482:	f8c3 c2f0 	str.w	ip, [r3, #752]	; 0x2f0
    1486:	6841      	ldr	r1, [r0, #4]
    1488:	f8c3 12f4 	str.w	r1, [r3, #756]	; 0x2f4
    148c:	6882      	ldr	r2, [r0, #8]
    148e:	f8c3 22f8 	str.w	r2, [r3, #760]	; 0x2f8
    1492:	4770      	bx	lr
    1494:	00000000 	andeq	r0, r0, r0

00001498 <INSSetGyroVar>:
    1498:	4b05      	ldr	r3, [pc, #20]	; (14b0 <INSSetGyroVar+0x18>)
    149a:	f8d0 c000 	ldr.w	ip, [r0]
    149e:	f8c3 c2e4 	str.w	ip, [r3, #740]	; 0x2e4
    14a2:	6841      	ldr	r1, [r0, #4]
    14a4:	f8c3 12e8 	str.w	r1, [r3, #744]	; 0x2e8
    14a8:	6882      	ldr	r2, [r0, #8]
    14aa:	f8c3 22ec 	str.w	r2, [r3, #748]	; 0x2ec
    14ae:	4770      	bx	lr
    14b0:	00000000 	andeq	r0, r0, r0

000014b4 <INSSetMagVar>:
    14b4:	4b05      	ldr	r3, [pc, #20]	; (14cc <INSSetMagVar+0x18>)
    14b6:	f8d0 c000 	ldr.w	ip, [r0]
    14ba:	f8c3 c320 	str.w	ip, [r3, #800]	; 0x320
    14be:	6841      	ldr	r1, [r0, #4]
    14c0:	f8c3 1324 	str.w	r1, [r3, #804]	; 0x324
    14c4:	6882      	ldr	r2, [r0, #8]
    14c6:	f8c3 2328 	str.w	r2, [r3, #808]	; 0x328
    14ca:	4770      	bx	lr
    14cc:	00000000 	andeq	r0, r0, r0

000014d0 <INSSetMagNorth>:
    14d0:	4b04      	ldr	r3, [pc, #16]	; (14e4 <INSSetMagNorth+0x14>)
    14d2:	f8d0 c000 	ldr.w	ip, [r0]
    14d6:	f8c3 c034 	str.w	ip, [r3, #52]	; 0x34
    14da:	6841      	ldr	r1, [r0, #4]
    14dc:	6399      	str	r1, [r3, #56]	; 0x38
    14de:	6882      	ldr	r2, [r0, #8]
    14e0:	63da      	str	r2, [r3, #60]	; 0x3c
    14e2:	4770      	bx	lr
    14e4:	00000000 	andeq	r0, r0, r0

000014e8 <INSSetGravity>:
    14e8:	4b01      	ldr	r3, [pc, #4]	; (14f0 <INSSetGravity+0x8>)
    14ea:	6018      	str	r0, [r3, #0]
    14ec:	4770      	bx	lr
    14ee:	bf00      	nop
    14f0:	00000000 	andeq	r0, r0, r0

000014f4 <INSCorrection>:
    14f4:	e92d 4ff0 	stmdb	sp!, {r4, r5, r6, r7, r8, r9, sl, fp, lr}
    14f8:	4683      	mov	fp, r0
    14fa:	6800      	ldr	r0, [r0, #0]
    14fc:	f8d1 e008 	ldr.w	lr, [r1, #8]
    1500:	f8d1 c004 	ldr.w	ip, [r1, #4]
    1504:	680d      	ldr	r5, [r1, #0]
    1506:	6817      	ldr	r7, [r2, #0]
    1508:	6856      	ldr	r6, [r2, #4]
    150a:	6892      	ldr	r2, [r2, #8]
    150c:	b0d3      	sub	sp, #332	; 0x14c
    150e:	4601      	mov	r1, r0
    1510:	4699      	mov	r9, r3
    1512:	f8db 4004 	ldr.w	r4, [fp, #4]
    1516:	f8cd e128 	str.w	lr, [sp, #296]	; 0x128
    151a:	924d      	str	r2, [sp, #308]	; 0x134
    151c:	f8cd c124 	str.w	ip, [sp, #292]	; 0x124
    1520:	9548      	str	r5, [sp, #288]	; 0x120
    1522:	974b      	str	r7, [sp, #300]	; 0x12c
    1524:	964c      	str	r6, [sp, #304]	; 0x130
    1526:	f7ff fffe 	bl	0 <__aeabi_fmul>
    152a:	4621      	mov	r1, r4
    152c:	4680      	mov	r8, r0
    152e:	4620      	mov	r0, r4
    1530:	f7ff fffe 	bl	0 <__aeabi_fmul>
    1534:	4601      	mov	r1, r0
    1536:	4640      	mov	r0, r8
    1538:	f7ff fffe 	bl	0 <__aeabi_fadd>
    153c:	f8db a008 	ldr.w	sl, [fp, #8]
    1540:	4605      	mov	r5, r0
    1542:	4651      	mov	r1, sl
    1544:	4650      	mov	r0, sl
    1546:	f7ff fffe 	bl	0 <__aeabi_fmul>
    154a:	4601      	mov	r1, r0
    154c:	4628      	mov	r0, r5
    154e:	f7ff fffe 	bl	0 <__aeabi_fadd>
    1552:	f8bd 4170 	ldrh.w	r4, [sp, #368]	; 0x170
    1556:	f04f 577e 	mov.w	r7, #1065353216	; 0x3f800000
    155a:	942f      	str	r4, [sp, #188]	; 0xbc
    155c:	f7ff fffe 	bl	0 <sqrtf>
    1560:	4601      	mov	r1, r0
    1562:	f04f 507e 	mov.w	r0, #1065353216	; 0x3f800000
    1566:	f7ff fffe 	bl	0 <__aeabi_fdiv>
    156a:	4606      	mov	r6, r0
    156c:	4601      	mov	r1, r0
    156e:	f8db 0000 	ldr.w	r0, [fp]
    1572:	f7ff fffe 	bl	0 <__aeabi_fmul>
    1576:	904e      	str	r0, [sp, #312]	; 0x138
    1578:	f8db 0004 	ldr.w	r0, [fp, #4]
    157c:	4631      	mov	r1, r6
    157e:	f7ff fffe 	bl	0 <__aeabi_fmul>
    1582:	904f      	str	r0, [sp, #316]	; 0x13c
    1584:	f8db 0008 	ldr.w	r0, [fp, #8]
    1588:	4631      	mov	r1, r6
    158a:	f7ff fffe 	bl	0 <__aeabi_fmul>
    158e:	4eb2      	ldr	r6, [pc, #712]	; (1858 <INSCorrection+0x364>)
    1590:	9050      	str	r0, [sp, #320]	; 0x140
    1592:	6a74      	ldr	r4, [r6, #36]	; 0x24
    1594:	f8d6 b038 	ldr.w	fp, [r6, #56]	; 0x38
    1598:	f8c6 73a0 	str.w	r7, [r6, #928]	; 0x3a0
    159c:	4659      	mov	r1, fp
    159e:	f8c6 7368 	str.w	r7, [r6, #872]	; 0x368
    15a2:	f8c6 7330 	str.w	r7, [r6, #816]	; 0x330
    15a6:	f8c6 7448 	str.w	r7, [r6, #1096]	; 0x448
    15aa:	f8c6 7410 	str.w	r7, [r6, #1040]	; 0x410
    15ae:	f8c6 73d8 	str.w	r7, [r6, #984]	; 0x3d8
    15b2:	4620      	mov	r0, r4
    15b4:	f8cd 9144 	str.w	r9, [sp, #324]	; 0x144
    15b8:	f7ff fffe 	bl	0 <__aeabi_fmul>
    15bc:	6a35      	ldr	r5, [r6, #32]
    15be:	f8d6 a03c 	ldr.w	sl, [r6, #60]	; 0x3c
    15c2:	9011      	str	r0, [sp, #68]	; 0x44
    15c4:	4651      	mov	r1, sl
    15c6:	4628      	mov	r0, r5
    15c8:	f7ff fffe 	bl	0 <__aeabi_fmul>
    15cc:	69b7      	ldr	r7, [r6, #24]
    15ce:	f8d6 8034 	ldr.w	r8, [r6, #52]	; 0x34
    15d2:	9015      	str	r0, [sp, #84]	; 0x54
    15d4:	4641      	mov	r1, r8
    15d6:	4638      	mov	r0, r7
    15d8:	f7ff fffe 	bl	0 <__aeabi_fmul>
    15dc:	9911      	ldr	r1, [sp, #68]	; 0x44
    15de:	f7ff fffe 	bl	0 <__aeabi_fadd>
    15e2:	9915      	ldr	r1, [sp, #84]	; 0x54
    15e4:	f7ff fffe 	bl	0 <__aeabi_fsub>
    15e8:	4601      	mov	r1, r0
    15ea:	f7ff fffe 	bl	0 <__aeabi_fadd>
    15ee:	f8d6 901c 	ldr.w	r9, [r6, #28]
    15f2:	4684      	mov	ip, r0
    15f4:	f8c6 c480 	str.w	ip, [r6, #1152]	; 0x480
    15f8:	4641      	mov	r1, r8
    15fa:	4648      	mov	r0, r9
    15fc:	f8cd c00c 	str.w	ip, [sp, #12]
    1600:	f7ff fffe 	bl	0 <__aeabi_fmul>
    1604:	4659      	mov	r1, fp
    1606:	4603      	mov	r3, r0
    1608:	4628      	mov	r0, r5
    160a:	9304      	str	r3, [sp, #16]
    160c:	f7ff fffe 	bl	0 <__aeabi_fmul>
    1610:	9a04      	ldr	r2, [sp, #16]
    1612:	4601      	mov	r1, r0
    1614:	4610      	mov	r0, r2
    1616:	f7ff fffe 	bl	0 <__aeabi_fadd>
    161a:	4651      	mov	r1, sl
    161c:	4603      	mov	r3, r0
    161e:	4620      	mov	r0, r4
    1620:	9304      	str	r3, [sp, #16]
    1622:	f7ff fffe 	bl	0 <__aeabi_fmul>
    1626:	4601      	mov	r1, r0
    1628:	9804      	ldr	r0, [sp, #16]
    162a:	f7ff fffe 	bl	0 <__aeabi_fadd>
    162e:	4601      	mov	r1, r0
    1630:	f7ff fffe 	bl	0 <__aeabi_fadd>
    1634:	4602      	mov	r2, r0
    1636:	f8c6 2484 	str.w	r2, [r6, #1156]	; 0x484
    163a:	4659      	mov	r1, fp
    163c:	4648      	mov	r0, r9
    163e:	9204      	str	r2, [sp, #16]
    1640:	f7ff fffe 	bl	0 <__aeabi_fmul>
    1644:	4651      	mov	r1, sl
    1646:	900d      	str	r0, [sp, #52]	; 0x34
    1648:	4638      	mov	r0, r7
    164a:	f7ff fffe 	bl	0 <__aeabi_fmul>
    164e:	f105 4100 	add.w	r1, r5, #2147483648	; 0x80000000
    1652:	900e      	str	r0, [sp, #56]	; 0x38
    1654:	4640      	mov	r0, r8
    1656:	f7ff fffe 	bl	0 <__aeabi_fmul>
    165a:	990d      	ldr	r1, [sp, #52]	; 0x34
    165c:	f7ff fffe 	bl	0 <__aeabi_fadd>
    1660:	990e      	ldr	r1, [sp, #56]	; 0x38
    1662:	f7ff fffe 	bl	0 <__aeabi_fsub>
    1666:	4601      	mov	r1, r0
    1668:	f7ff fffe 	bl	0 <__aeabi_fadd>
    166c:	4659      	mov	r1, fp
    166e:	f8c6 0488 	str.w	r0, [r6, #1160]	; 0x488
    1672:	4638      	mov	r0, r7
    1674:	f7ff fffe 	bl	0 <__aeabi_fmul>
    1678:	4651      	mov	r1, sl
    167a:	900f      	str	r0, [sp, #60]	; 0x3c
    167c:	4648      	mov	r0, r9
    167e:	f7ff fffe 	bl	0 <__aeabi_fmul>
    1682:	f104 4100 	add.w	r1, r4, #2147483648	; 0x80000000
    1686:	9010      	str	r0, [sp, #64]	; 0x40
    1688:	4640      	mov	r0, r8
    168a:	f7ff fffe 	bl	0 <__aeabi_fmul>
    168e:	990f      	ldr	r1, [sp, #60]	; 0x3c
    1690:	f7ff fffe 	bl	0 <__aeabi_fadd>
    1694:	9910      	ldr	r1, [sp, #64]	; 0x40
    1696:	f7ff fffe 	bl	0 <__aeabi_fadd>
    169a:	4601      	mov	r1, r0
    169c:	f7ff fffe 	bl	0 <__aeabi_fadd>
    16a0:	4684      	mov	ip, r0
    16a2:	f8c6 c48c 	str.w	ip, [r6, #1164]	; 0x48c
    16a6:	f8c6 c4b4 	str.w	ip, [r6, #1204]	; 0x4b4
    16aa:	4641      	mov	r1, r8
    16ac:	4628      	mov	r0, r5
    16ae:	f7ff fffe 	bl	0 <__aeabi_fmul>
    16b2:	990d      	ldr	r1, [sp, #52]	; 0x34
    16b4:	f7ff fffe 	bl	0 <__aeabi_fsub>
    16b8:	4601      	mov	r1, r0
    16ba:	980e      	ldr	r0, [sp, #56]	; 0x38
    16bc:	f7ff fffe 	bl	0 <__aeabi_fadd>
    16c0:	4601      	mov	r1, r0
    16c2:	f7ff fffe 	bl	0 <__aeabi_fadd>
    16c6:	9b04      	ldr	r3, [sp, #16]
    16c8:	4602      	mov	r2, r0
    16ca:	f8c6 34bc 	str.w	r3, [r6, #1212]	; 0x4bc
    16ce:	f8c6 24b8 	str.w	r2, [r6, #1208]	; 0x4b8
    16d2:	f107 4100 	add.w	r1, r7, #2147483648	; 0x80000000
    16d6:	4640      	mov	r0, r8
    16d8:	9202      	str	r2, [sp, #8]
    16da:	f7ff fffe 	bl	0 <__aeabi_fmul>
    16de:	9911      	ldr	r1, [sp, #68]	; 0x44
    16e0:	f7ff fffe 	bl	0 <__aeabi_fsub>
    16e4:	4601      	mov	r1, r0
    16e6:	9815      	ldr	r0, [sp, #84]	; 0x54
    16e8:	f7ff fffe 	bl	0 <__aeabi_fadd>
    16ec:	4601      	mov	r1, r0
    16ee:	f7ff fffe 	bl	0 <__aeabi_fadd>
    16f2:	9a02      	ldr	r2, [sp, #8]
    16f4:	4641      	mov	r1, r8
    16f6:	f8c6 24e8 	str.w	r2, [r6, #1256]	; 0x4e8
    16fa:	f8c6 04c0 	str.w	r0, [r6, #1216]	; 0x4c0
    16fe:	4620      	mov	r0, r4
    1700:	f7ff fffe 	bl	0 <__aeabi_fmul>
    1704:	990f      	ldr	r1, [sp, #60]	; 0x3c
    1706:	f7ff fffe 	bl	0 <__aeabi_fsub>
    170a:	9910      	ldr	r1, [sp, #64]	; 0x40
    170c:	f7ff fffe 	bl	0 <__aeabi_fsub>
    1710:	4601      	mov	r1, r0
    1712:	f7ff fffe 	bl	0 <__aeabi_fadd>
    1716:	f8dd c00c 	ldr.w	ip, [sp, #12]
    171a:	9b04      	ldr	r3, [sp, #16]
    171c:	68b2      	ldr	r2, [r6, #8]
    171e:	f8c6 04ec 	str.w	r0, [r6, #1260]	; 0x4ec
    1722:	f8c6 c4f0 	str.w	ip, [r6, #1264]	; 0x4f0
    1726:	f8c6 34f4 	str.w	r3, [r6, #1268]	; 0x4f4
    172a:	f8d6 c000 	ldr.w	ip, [r6]
    172e:	f8d6 e004 	ldr.w	lr, [r6, #4]
    1732:	4b4a      	ldr	r3, [pc, #296]	; (185c <INSCorrection+0x368>)
    1734:	f8cd c0f8 	str.w	ip, [sp, #248]	; 0xf8
    1738:	f8c6 350c 	str.w	r3, [r6, #1292]	; 0x50c
    173c:	f8d6 c010 	ldr.w	ip, [r6, #16]
    1740:	68f3      	ldr	r3, [r6, #12]
    1742:	f8cd e0fc 	str.w	lr, [sp, #252]	; 0xfc
    1746:	f8d6 e014 	ldr.w	lr, [r6, #20]
    174a:	4639      	mov	r1, r7
    174c:	4638      	mov	r0, r7
    174e:	f8cd c108 	str.w	ip, [sp, #264]	; 0x108
    1752:	f8cd e10c 	str.w	lr, [sp, #268]	; 0x10c
    1756:	9240      	str	r2, [sp, #256]	; 0x100
    1758:	9202      	str	r2, [sp, #8]
    175a:	9341      	str	r3, [sp, #260]	; 0x104
    175c:	f7ff fffe 	bl	0 <__aeabi_fmul>
    1760:	4649      	mov	r1, r9
    1762:	900d      	str	r0, [sp, #52]	; 0x34
    1764:	4648      	mov	r0, r9
    1766:	f7ff fffe 	bl	0 <__aeabi_fmul>
    176a:	4629      	mov	r1, r5
    176c:	900e      	str	r0, [sp, #56]	; 0x38
    176e:	4628      	mov	r0, r5
    1770:	f7ff fffe 	bl	0 <__aeabi_fmul>
    1774:	4621      	mov	r1, r4
    1776:	9011      	str	r0, [sp, #68]	; 0x44
    1778:	4620      	mov	r0, r4
    177a:	f7ff fffe 	bl	0 <__aeabi_fmul>
    177e:	4629      	mov	r1, r5
    1780:	9015      	str	r0, [sp, #84]	; 0x54
    1782:	4648      	mov	r0, r9
    1784:	f7ff fffe 	bl	0 <__aeabi_fmul>
    1788:	4621      	mov	r1, r4
    178a:	900f      	str	r0, [sp, #60]	; 0x3c
    178c:	4638      	mov	r0, r7
    178e:	f7ff fffe 	bl	0 <__aeabi_fmul>
    1792:	4621      	mov	r1, r4
    1794:	9010      	str	r0, [sp, #64]	; 0x40
    1796:	4648      	mov	r0, r9
    1798:	f7ff fffe 	bl	0 <__aeabi_fmul>
    179c:	4629      	mov	r1, r5
    179e:	9012      	str	r0, [sp, #72]	; 0x48
    17a0:	4638      	mov	r0, r7
    17a2:	f7ff fffe 	bl	0 <__aeabi_fmul>
    17a6:	990e      	ldr	r1, [sp, #56]	; 0x38
    17a8:	9013      	str	r0, [sp, #76]	; 0x4c
    17aa:	980d      	ldr	r0, [sp, #52]	; 0x34
    17ac:	f7ff fffe 	bl	0 <__aeabi_fadd>
    17b0:	9911      	ldr	r1, [sp, #68]	; 0x44
    17b2:	f7ff fffe 	bl	0 <__aeabi_fsub>
    17b6:	9915      	ldr	r1, [sp, #84]	; 0x54
    17b8:	f7ff fffe 	bl	0 <__aeabi_fsub>
    17bc:	4601      	mov	r1, r0
    17be:	4640      	mov	r0, r8
    17c0:	f7ff fffe 	bl	0 <__aeabi_fmul>
    17c4:	9910      	ldr	r1, [sp, #64]	; 0x40
    17c6:	4603      	mov	r3, r0
    17c8:	980f      	ldr	r0, [sp, #60]	; 0x3c
    17ca:	9304      	str	r3, [sp, #16]
    17cc:	f7ff fffe 	bl	0 <__aeabi_fadd>
    17d0:	4601      	mov	r1, r0
    17d2:	f7ff fffe 	bl	0 <__aeabi_fadd>
    17d6:	4601      	mov	r1, r0
    17d8:	4658      	mov	r0, fp
    17da:	f7ff fffe 	bl	0 <__aeabi_fmul>
    17de:	9a04      	ldr	r2, [sp, #16]
    17e0:	4601      	mov	r1, r0
    17e2:	4610      	mov	r0, r2
    17e4:	f7ff fffe 	bl	0 <__aeabi_fadd>
    17e8:	9913      	ldr	r1, [sp, #76]	; 0x4c
    17ea:	4603      	mov	r3, r0
    17ec:	9812      	ldr	r0, [sp, #72]	; 0x48
    17ee:	9304      	str	r3, [sp, #16]
    17f0:	f7ff fffe 	bl	0 <__aeabi_fsub>
    17f4:	4601      	mov	r1, r0
    17f6:	f7ff fffe 	bl	0 <__aeabi_fadd>
    17fa:	4601      	mov	r1, r0
    17fc:	4650      	mov	r0, sl
    17fe:	f7ff fffe 	bl	0 <__aeabi_fmul>
    1802:	4601      	mov	r1, r0
    1804:	9804      	ldr	r0, [sp, #16]
    1806:	f7ff fffe 	bl	0 <__aeabi_fadd>
    180a:	990e      	ldr	r1, [sp, #56]	; 0x38
    180c:	9044      	str	r0, [sp, #272]	; 0x110
    180e:	980d      	ldr	r0, [sp, #52]	; 0x34
    1810:	f7ff fffe 	bl	0 <__aeabi_fsub>
    1814:	4621      	mov	r1, r4
    1816:	900d      	str	r0, [sp, #52]	; 0x34
    1818:	4628      	mov	r0, r5
    181a:	f7ff fffe 	bl	0 <__aeabi_fmul>
    181e:	4649      	mov	r1, r9
    1820:	900e      	str	r0, [sp, #56]	; 0x38
    1822:	4638      	mov	r0, r7
    1824:	f7ff fffe 	bl	0 <__aeabi_fmul>
    1828:	9910      	ldr	r1, [sp, #64]	; 0x40
    182a:	9014      	str	r0, [sp, #80]	; 0x50
    182c:	980f      	ldr	r0, [sp, #60]	; 0x3c
    182e:	f7ff fffe 	bl	0 <__aeabi_fsub>
    1832:	4601      	mov	r1, r0
    1834:	f7ff fffe 	bl	0 <__aeabi_fadd>
    1838:	4601      	mov	r1, r0
    183a:	4640      	mov	r0, r8
    183c:	f7ff fffe 	bl	0 <__aeabi_fmul>
    1840:	990d      	ldr	r1, [sp, #52]	; 0x34
    1842:	4602      	mov	r2, r0
    1844:	9811      	ldr	r0, [sp, #68]	; 0x44
    1846:	9204      	str	r2, [sp, #16]
    1848:	f7ff fffe 	bl	0 <__aeabi_fadd>
    184c:	9915      	ldr	r1, [sp, #84]	; 0x54
    184e:	f7ff fffe 	bl	0 <__aeabi_fsub>
    1852:	4601      	mov	r1, r0
    1854:	e004      	b.n	1860 <INSCorrection+0x36c>
    1856:	bf00      	nop
    1858:	00000000 	andeq	r0, r0, r0
    185c:	bf800000 	svclt	0x00800000
    1860:	4658      	mov	r0, fp
    1862:	f7ff fffe 	bl	0 <__aeabi_fmul>
    1866:	9b04      	ldr	r3, [sp, #16]
    1868:	4601      	mov	r1, r0
    186a:	4618      	mov	r0, r3
    186c:	f7ff fffe 	bl	0 <__aeabi_fadd>
    1870:	9914      	ldr	r1, [sp, #80]	; 0x50
    1872:	4602      	mov	r2, r0
    1874:	980e      	ldr	r0, [sp, #56]	; 0x38
    1876:	9204      	str	r2, [sp, #16]
    1878:	f7ff fffe 	bl	0 <__aeabi_fadd>
    187c:	4601      	mov	r1, r0
    187e:	f7ff fffe 	bl	0 <__aeabi_fadd>
    1882:	4601      	mov	r1, r0
    1884:	4650      	mov	r0, sl
    1886:	f7ff fffe 	bl	0 <__aeabi_fmul>
    188a:	4601      	mov	r1, r0
    188c:	9804      	ldr	r0, [sp, #16]
    188e:	f7ff fffe 	bl	0 <__aeabi_fadd>
    1892:	9913      	ldr	r1, [sp, #76]	; 0x4c
    1894:	9045      	str	r0, [sp, #276]	; 0x114
    1896:	9812      	ldr	r0, [sp, #72]	; 0x48
    1898:	f7ff fffe 	bl	0 <__aeabi_fadd>
    189c:	4601      	mov	r1, r0
    189e:	f7ff fffe 	bl	0 <__aeabi_fadd>
    18a2:	4601      	mov	r1, r0
    18a4:	4640      	mov	r0, r8
    18a6:	f7ff fffe 	bl	0 <__aeabi_fmul>
    18aa:	9914      	ldr	r1, [sp, #80]	; 0x50
    18ac:	4680      	mov	r8, r0
    18ae:	980e      	ldr	r0, [sp, #56]	; 0x38
    18b0:	f7ff fffe 	bl	0 <__aeabi_fsub>
    18b4:	4601      	mov	r1, r0
    18b6:	f7ff fffe 	bl	0 <__aeabi_fadd>
    18ba:	4601      	mov	r1, r0
    18bc:	4658      	mov	r0, fp
    18be:	f7ff fffe 	bl	0 <__aeabi_fmul>
    18c2:	4601      	mov	r1, r0
    18c4:	4640      	mov	r0, r8
    18c6:	f7ff fffe 	bl	0 <__aeabi_fadd>
    18ca:	9911      	ldr	r1, [sp, #68]	; 0x44
    18cc:	4680      	mov	r8, r0
    18ce:	980d      	ldr	r0, [sp, #52]	; 0x34
    18d0:	f7ff fffe 	bl	0 <__aeabi_fsub>
    18d4:	4601      	mov	r1, r0
    18d6:	9815      	ldr	r0, [sp, #84]	; 0x54
    18d8:	f7ff fffe 	bl	0 <__aeabi_fadd>
    18dc:	4601      	mov	r1, r0
    18de:	4650      	mov	r0, sl
    18e0:	f7ff fffe 	bl	0 <__aeabi_fmul>
    18e4:	4601      	mov	r1, r0
    18e6:	4640      	mov	r0, r8
    18e8:	f7ff fffe 	bl	0 <__aeabi_fadd>
    18ec:	f04f 0800 	mov.w	r8, #0
    18f0:	9a02      	ldr	r2, [sp, #8]
    18f2:	f8cd 8068 	str.w	r8, [sp, #104]	; 0x68
    18f6:	6ab1      	ldr	r1, [r6, #40]	; 0x28
    18f8:	6af3      	ldr	r3, [r6, #44]	; 0x2c
    18fa:	f102 4c00 	add.w	ip, r2, #2147483648	; 0x80000000
    18fe:	912b      	str	r1, [sp, #172]	; 0xac
    1900:	932c      	str	r3, [sp, #176]	; 0xb0
    1902:	f8d6 a030 	ldr.w	sl, [r6, #48]	; 0x30
    1906:	f8d6 e000 	ldr.w	lr, [r6]
    190a:	f8d6 8004 	ldr.w	r8, [r6, #4]
    190e:	922e      	str	r2, [sp, #184]	; 0xb8
    1910:	68f1      	ldr	r1, [r6, #12]
    1912:	6932      	ldr	r2, [r6, #16]
    1914:	6973      	ldr	r3, [r6, #20]
    1916:	9046      	str	r0, [sp, #280]	; 0x118
    1918:	972a      	str	r7, [sp, #168]	; 0xa8
    191a:	2000      	movs	r0, #0
    191c:	9528      	str	r5, [sp, #160]	; 0xa0
    191e:	f506 67a7 	add.w	r7, r6, #1336	; 0x538
    1922:	f506 754c 	add.w	r5, r6, #816	; 0x330
    1926:	921f      	str	r2, [sp, #124]	; 0x7c
    1928:	f8cd a0b4 	str.w	sl, [sp, #180]	; 0xb4
    192c:	f8cd c11c 	str.w	ip, [sp, #284]	; 0x11c
    1930:	f8cd e088 	str.w	lr, [sp, #136]	; 0x88
    1934:	f8cd 8084 	str.w	r8, [sp, #132]	; 0x84
    1938:	9120      	str	r1, [sp, #128]	; 0x80
    193a:	931e      	str	r3, [sp, #120]	; 0x78
    193c:	f8cd 909c 	str.w	r9, [sp, #156]	; 0x9c
    1940:	9429      	str	r4, [sp, #164]	; 0xa4
    1942:	9511      	str	r5, [sp, #68]	; 0x44
    1944:	9715      	str	r7, [sp, #84]	; 0x54
    1946:	9017      	str	r0, [sp, #92]	; 0x5c
    1948:	4602      	mov	r2, r0
    194a:	982f      	ldr	r0, [sp, #188]	; 0xbc
    194c:	fa50 f102 	asrs.w	r1, r0, r2
    1950:	f011 0f01 	tst.w	r1, #1
    1954:	f001 80b0 	beq.w	2ab8 <INSCorrection+0x15c4>
    1958:	9a11      	ldr	r2, [sp, #68]	; 0x44
    195a:	6c31      	ldr	r1, [r6, #64]	; 0x40
    195c:	f8d2 a000 	ldr.w	sl, [r2]
    1960:	f8d2 9004 	ldr.w	r9, [r2, #4]
    1964:	4650      	mov	r0, sl
    1966:	f7ff fffe 	bl	0 <__aeabi_fmul>
    196a:	2100      	movs	r1, #0
    196c:	f7ff fffe 	bl	0 <__aeabi_fadd>
    1970:	6f71      	ldr	r1, [r6, #116]	; 0x74
    1972:	4605      	mov	r5, r0
    1974:	4648      	mov	r0, r9
    1976:	f7ff fffe 	bl	0 <__aeabi_fmul>
    197a:	4601      	mov	r1, r0
    197c:	4628      	mov	r0, r5
    197e:	f7ff fffe 	bl	0 <__aeabi_fadd>
    1982:	9f11      	ldr	r7, [sp, #68]	; 0x44
    1984:	4604      	mov	r4, r0
    1986:	f8d7 8008 	ldr.w	r8, [r7, #8]
    198a:	f8d6 10a8 	ldr.w	r1, [r6, #168]	; 0xa8
    198e:	4640      	mov	r0, r8
    1990:	f7ff fffe 	bl	0 <__aeabi_fmul>
    1994:	4601      	mov	r1, r0
    1996:	4620      	mov	r0, r4
    1998:	f7ff fffe 	bl	0 <__aeabi_fadd>
    199c:	68ff      	ldr	r7, [r7, #12]
    199e:	f8dd e044 	ldr.w	lr, [sp, #68]	; 0x44
    19a2:	4683      	mov	fp, r0
    19a4:	f8d6 10dc 	ldr.w	r1, [r6, #220]	; 0xdc
    19a8:	4638      	mov	r0, r7
    19aa:	f8de 4010 	ldr.w	r4, [lr, #16]
    19ae:	f7ff fffe 	bl	0 <__aeabi_fmul>
    19b2:	4601      	mov	r1, r0
    19b4:	4658      	mov	r0, fp
    19b6:	f7ff fffe 	bl	0 <__aeabi_fadd>
    19ba:	9d11      	ldr	r5, [sp, #68]	; 0x44
    19bc:	4683      	mov	fp, r0
    19be:	f8d5 c014 	ldr.w	ip, [r5, #20]
    19c2:	f8d6 1110 	ldr.w	r1, [r6, #272]	; 0x110
    19c6:	4620      	mov	r0, r4
    19c8:	f8cd c030 	str.w	ip, [sp, #48]	; 0x30
    19cc:	f7ff fffe 	bl	0 <__aeabi_fmul>
    19d0:	4601      	mov	r1, r0
    19d2:	4658      	mov	r0, fp
    19d4:	f7ff fffe 	bl	0 <__aeabi_fadd>
    19d8:	9b11      	ldr	r3, [sp, #68]	; 0x44
    19da:	4605      	mov	r5, r0
    19dc:	699a      	ldr	r2, [r3, #24]
    19de:	f8d6 1144 	ldr.w	r1, [r6, #324]	; 0x144
    19e2:	980c      	ldr	r0, [sp, #48]	; 0x30
    19e4:	920b      	str	r2, [sp, #44]	; 0x2c
    19e6:	f7ff fffe 	bl	0 <__aeabi_fmul>
    19ea:	4601      	mov	r1, r0
    19ec:	4628      	mov	r0, r5
    19ee:	f7ff fffe 	bl	0 <__aeabi_fadd>
    19f2:	f8dd c044 	ldr.w	ip, [sp, #68]	; 0x44
    19f6:	4683      	mov	fp, r0
    19f8:	f8dc e01c 	ldr.w	lr, [ip, #28]
    19fc:	f8d6 1178 	ldr.w	r1, [r6, #376]	; 0x178
    1a00:	980b      	ldr	r0, [sp, #44]	; 0x2c
    1a02:	f8cd e028 	str.w	lr, [sp, #40]	; 0x28
    1a06:	f7ff fffe 	bl	0 <__aeabi_fmul>
    1a0a:	4601      	mov	r1, r0
    1a0c:	4658      	mov	r0, fp
    1a0e:	f7ff fffe 	bl	0 <__aeabi_fadd>
    1a12:	9d11      	ldr	r5, [sp, #68]	; 0x44
    1a14:	4683      	mov	fp, r0
    1a16:	f8d5 c020 	ldr.w	ip, [r5, #32]
    1a1a:	f8d6 11ac 	ldr.w	r1, [r6, #428]	; 0x1ac
    1a1e:	980a      	ldr	r0, [sp, #40]	; 0x28
    1a20:	f8cd c024 	str.w	ip, [sp, #36]	; 0x24
    1a24:	f7ff fffe 	bl	0 <__aeabi_fmul>
    1a28:	4601      	mov	r1, r0
    1a2a:	4658      	mov	r0, fp
    1a2c:	f7ff fffe 	bl	0 <__aeabi_fadd>
    1a30:	9b11      	ldr	r3, [sp, #68]	; 0x44
    1a32:	4605      	mov	r5, r0
    1a34:	6a5a      	ldr	r2, [r3, #36]	; 0x24
    1a36:	f8d6 11e0 	ldr.w	r1, [r6, #480]	; 0x1e0
    1a3a:	9809      	ldr	r0, [sp, #36]	; 0x24
    1a3c:	9208      	str	r2, [sp, #32]
    1a3e:	f7ff fffe 	bl	0 <__aeabi_fmul>
    1a42:	4601      	mov	r1, r0
    1a44:	4628      	mov	r0, r5
    1a46:	f7ff fffe 	bl	0 <__aeabi_fadd>
    1a4a:	f8dd c044 	ldr.w	ip, [sp, #68]	; 0x44
    1a4e:	4683      	mov	fp, r0
    1a50:	f8dc e028 	ldr.w	lr, [ip, #40]	; 0x28
    1a54:	f8d6 1214 	ldr.w	r1, [r6, #532]	; 0x214
    1a58:	9808      	ldr	r0, [sp, #32]
    1a5a:	f8cd e01c 	str.w	lr, [sp, #28]
    1a5e:	f7ff fffe 	bl	0 <__aeabi_fmul>
    1a62:	4601      	mov	r1, r0
    1a64:	4658      	mov	r0, fp
    1a66:	f7ff fffe 	bl	0 <__aeabi_fadd>
    1a6a:	9d11      	ldr	r5, [sp, #68]	; 0x44
    1a6c:	4683      	mov	fp, r0
    1a6e:	f8d5 c02c 	ldr.w	ip, [r5, #44]	; 0x2c
    1a72:	f8d6 1248 	ldr.w	r1, [r6, #584]	; 0x248
    1a76:	9807      	ldr	r0, [sp, #28]
    1a78:	f8cd c018 	str.w	ip, [sp, #24]
    1a7c:	f7ff fffe 	bl	0 <__aeabi_fmul>
    1a80:	4601      	mov	r1, r0
    1a82:	4658      	mov	r0, fp
    1a84:	f7ff fffe 	bl	0 <__aeabi_fadd>
    1a88:	9b11      	ldr	r3, [sp, #68]	; 0x44
    1a8a:	4605      	mov	r5, r0
    1a8c:	6b1a      	ldr	r2, [r3, #48]	; 0x30
    1a8e:	f8d6 127c 	ldr.w	r1, [r6, #636]	; 0x27c
    1a92:	9806      	ldr	r0, [sp, #24]
    1a94:	9205      	str	r2, [sp, #20]
    1a96:	f7ff fffe 	bl	0 <__aeabi_fmul>
    1a9a:	4601      	mov	r1, r0
    1a9c:	4628      	mov	r0, r5
    1a9e:	f7ff fffe 	bl	0 <__aeabi_fadd>
    1aa2:	f8d6 12b0 	ldr.w	r1, [r6, #688]	; 0x2b0
    1aa6:	4683      	mov	fp, r0
    1aa8:	9805      	ldr	r0, [sp, #20]
    1aaa:	f7ff fffe 	bl	0 <__aeabi_fmul>
    1aae:	4601      	mov	r1, r0
    1ab0:	4658      	mov	r0, fp
    1ab2:	f7ff fffe 	bl	0 <__aeabi_fadd>
    1ab6:	901d      	str	r0, [sp, #116]	; 0x74
    1ab8:	6c71      	ldr	r1, [r6, #68]	; 0x44
    1aba:	9031      	str	r0, [sp, #196]	; 0xc4
    1abc:	4650      	mov	r0, sl
    1abe:	f7ff fffe 	bl	0 <__aeabi_fmul>
    1ac2:	2100      	movs	r1, #0
    1ac4:	f7ff fffe 	bl	0 <__aeabi_fadd>
    1ac8:	6fb1      	ldr	r1, [r6, #120]	; 0x78
    1aca:	4605      	mov	r5, r0
    1acc:	4648      	mov	r0, r9
    1ace:	f7ff fffe 	bl	0 <__aeabi_fmul>
    1ad2:	4601      	mov	r1, r0
    1ad4:	4628      	mov	r0, r5
    1ad6:	f7ff fffe 	bl	0 <__aeabi_fadd>
    1ada:	f8d6 10ac 	ldr.w	r1, [r6, #172]	; 0xac
    1ade:	4683      	mov	fp, r0
    1ae0:	4640      	mov	r0, r8
    1ae2:	f7ff fffe 	bl	0 <__aeabi_fmul>
    1ae6:	4601      	mov	r1, r0
    1ae8:	4658      	mov	r0, fp
    1aea:	f7ff fffe 	bl	0 <__aeabi_fadd>
    1aee:	f8d6 10e0 	ldr.w	r1, [r6, #224]	; 0xe0
    1af2:	4605      	mov	r5, r0
    1af4:	4638      	mov	r0, r7
    1af6:	f7ff fffe 	bl	0 <__aeabi_fmul>
    1afa:	4601      	mov	r1, r0
    1afc:	4628      	mov	r0, r5
    1afe:	f7ff fffe 	bl	0 <__aeabi_fadd>
    1b02:	f8d6 1114 	ldr.w	r1, [r6, #276]	; 0x114
    1b06:	4683      	mov	fp, r0
    1b08:	4620      	mov	r0, r4
    1b0a:	f7ff fffe 	bl	0 <__aeabi_fmul>
    1b0e:	4601      	mov	r1, r0
    1b10:	4658      	mov	r0, fp
    1b12:	f7ff fffe 	bl	0 <__aeabi_fadd>
    1b16:	f8d6 1148 	ldr.w	r1, [r6, #328]	; 0x148
    1b1a:	4605      	mov	r5, r0
    1b1c:	980c      	ldr	r0, [sp, #48]	; 0x30
    1b1e:	f7ff fffe 	bl	0 <__aeabi_fmul>
    1b22:	4601      	mov	r1, r0
    1b24:	4628      	mov	r0, r5
    1b26:	f7ff fffe 	bl	0 <__aeabi_fadd>
    1b2a:	f8d6 117c 	ldr.w	r1, [r6, #380]	; 0x17c
    1b2e:	4683      	mov	fp, r0
    1b30:	980b      	ldr	r0, [sp, #44]	; 0x2c
    1b32:	f7ff fffe 	bl	0 <__aeabi_fmul>
    1b36:	4601      	mov	r1, r0
    1b38:	4658      	mov	r0, fp
    1b3a:	f7ff fffe 	bl	0 <__aeabi_fadd>
    1b3e:	f8d6 11b0 	ldr.w	r1, [r6, #432]	; 0x1b0
    1b42:	4605      	mov	r5, r0
    1b44:	980a      	ldr	r0, [sp, #40]	; 0x28
    1b46:	f7ff fffe 	bl	0 <__aeabi_fmul>
    1b4a:	4601      	mov	r1, r0
    1b4c:	4628      	mov	r0, r5
    1b4e:	f7ff fffe 	bl	0 <__aeabi_fadd>
    1b52:	f8d6 11e4 	ldr.w	r1, [r6, #484]	; 0x1e4
    1b56:	4683      	mov	fp, r0
    1b58:	9809      	ldr	r0, [sp, #36]	; 0x24
    1b5a:	f7ff fffe 	bl	0 <__aeabi_fmul>
    1b5e:	4601      	mov	r1, r0
    1b60:	4658      	mov	r0, fp
    1b62:	f7ff fffe 	bl	0 <__aeabi_fadd>
    1b66:	f8d6 1218 	ldr.w	r1, [r6, #536]	; 0x218
    1b6a:	4605      	mov	r5, r0
    1b6c:	9808      	ldr	r0, [sp, #32]
    1b6e:	f7ff fffe 	bl	0 <__aeabi_fmul>
    1b72:	4601      	mov	r1, r0
    1b74:	4628      	mov	r0, r5
    1b76:	f7ff fffe 	bl	0 <__aeabi_fadd>
    1b7a:	f8d6 124c 	ldr.w	r1, [r6, #588]	; 0x24c
    1b7e:	4683      	mov	fp, r0
    1b80:	9807      	ldr	r0, [sp, #28]
    1b82:	f7ff fffe 	bl	0 <__aeabi_fmul>
    1b86:	4601      	mov	r1, r0
    1b88:	4658      	mov	r0, fp
    1b8a:	f7ff fffe 	bl	0 <__aeabi_fadd>
    1b8e:	f8d6 1280 	ldr.w	r1, [r6, #640]	; 0x280
    1b92:	4605      	mov	r5, r0
    1b94:	9806      	ldr	r0, [sp, #24]
    1b96:	f7ff fffe 	bl	0 <__aeabi_fmul>
    1b9a:	4601      	mov	r1, r0
    1b9c:	4628      	mov	r0, r5
    1b9e:	f7ff fffe 	bl	0 <__aeabi_fadd>
    1ba2:	f8d6 12b4 	ldr.w	r1, [r6, #692]	; 0x2b4
    1ba6:	4683      	mov	fp, r0
    1ba8:	9805      	ldr	r0, [sp, #20]
    1baa:	f7ff fffe 	bl	0 <__aeabi_fmul>
    1bae:	4601      	mov	r1, r0
    1bb0:	4658      	mov	r0, fp
    1bb2:	f7ff fffe 	bl	0 <__aeabi_fadd>
    1bb6:	9018      	str	r0, [sp, #96]	; 0x60
    1bb8:	6cb1      	ldr	r1, [r6, #72]	; 0x48
    1bba:	9032      	str	r0, [sp, #200]	; 0xc8
    1bbc:	4650      	mov	r0, sl
    1bbe:	f7ff fffe 	bl	0 <__aeabi_fmul>
    1bc2:	2100      	movs	r1, #0
    1bc4:	f7ff fffe 	bl	0 <__aeabi_fadd>
    1bc8:	6ff1      	ldr	r1, [r6, #124]	; 0x7c
    1bca:	4605      	mov	r5, r0
    1bcc:	4648      	mov	r0, r9
    1bce:	f7ff fffe 	bl	0 <__aeabi_fmul>
    1bd2:	4601      	mov	r1, r0
    1bd4:	4628      	mov	r0, r5
    1bd6:	f7ff fffe 	bl	0 <__aeabi_fadd>
    1bda:	f8d6 10b0 	ldr.w	r1, [r6, #176]	; 0xb0
    1bde:	4683      	mov	fp, r0
    1be0:	4640      	mov	r0, r8
    1be2:	f7ff fffe 	bl	0 <__aeabi_fmul>
    1be6:	4601      	mov	r1, r0
    1be8:	4658      	mov	r0, fp
    1bea:	f7ff fffe 	bl	0 <__aeabi_fadd>
    1bee:	f8d6 10e4 	ldr.w	r1, [r6, #228]	; 0xe4
    1bf2:	4605      	mov	r5, r0
    1bf4:	4638      	mov	r0, r7
    1bf6:	f7ff fffe 	bl	0 <__aeabi_fmul>
    1bfa:	4601      	mov	r1, r0
    1bfc:	4628      	mov	r0, r5
    1bfe:	f7ff fffe 	bl	0 <__aeabi_fadd>
    1c02:	f8d6 1118 	ldr.w	r1, [r6, #280]	; 0x118
    1c06:	4683      	mov	fp, r0
    1c08:	4620      	mov	r0, r4
    1c0a:	f7ff fffe 	bl	0 <__aeabi_fmul>
    1c0e:	4601      	mov	r1, r0
    1c10:	4658      	mov	r0, fp
    1c12:	f7ff fffe 	bl	0 <__aeabi_fadd>
    1c16:	f8d6 114c 	ldr.w	r1, [r6, #332]	; 0x14c
    1c1a:	4605      	mov	r5, r0
    1c1c:	980c      	ldr	r0, [sp, #48]	; 0x30
    1c1e:	f7ff fffe 	bl	0 <__aeabi_fmul>
    1c22:	4601      	mov	r1, r0
    1c24:	4628      	mov	r0, r5
    1c26:	f7ff fffe 	bl	0 <__aeabi_fadd>
    1c2a:	f8d6 1180 	ldr.w	r1, [r6, #384]	; 0x180
    1c2e:	4683      	mov	fp, r0
    1c30:	980b      	ldr	r0, [sp, #44]	; 0x2c
    1c32:	f7ff fffe 	bl	0 <__aeabi_fmul>
    1c36:	4601      	mov	r1, r0
    1c38:	4658      	mov	r0, fp
    1c3a:	f7ff fffe 	bl	0 <__aeabi_fadd>
    1c3e:	f8d6 11b4 	ldr.w	r1, [r6, #436]	; 0x1b4
    1c42:	4605      	mov	r5, r0
    1c44:	980a      	ldr	r0, [sp, #40]	; 0x28
    1c46:	f7ff fffe 	bl	0 <__aeabi_fmul>
    1c4a:	4601      	mov	r1, r0
    1c4c:	4628      	mov	r0, r5
    1c4e:	f7ff fffe 	bl	0 <__aeabi_fadd>
    1c52:	f8d6 11e8 	ldr.w	r1, [r6, #488]	; 0x1e8
    1c56:	4683      	mov	fp, r0
    1c58:	9809      	ldr	r0, [sp, #36]	; 0x24
    1c5a:	f7ff fffe 	bl	0 <__aeabi_fmul>
    1c5e:	4601      	mov	r1, r0
    1c60:	4658      	mov	r0, fp
    1c62:	f7ff fffe 	bl	0 <__aeabi_fadd>
    1c66:	f8d6 121c 	ldr.w	r1, [r6, #540]	; 0x21c
    1c6a:	4605      	mov	r5, r0
    1c6c:	9808      	ldr	r0, [sp, #32]
    1c6e:	f7ff fffe 	bl	0 <__aeabi_fmul>
    1c72:	4601      	mov	r1, r0
    1c74:	4628      	mov	r0, r5
    1c76:	f7ff fffe 	bl	0 <__aeabi_fadd>
    1c7a:	f8d6 1250 	ldr.w	r1, [r6, #592]	; 0x250
    1c7e:	4683      	mov	fp, r0
    1c80:	9807      	ldr	r0, [sp, #28]
    1c82:	f7ff fffe 	bl	0 <__aeabi_fmul>
    1c86:	4601      	mov	r1, r0
    1c88:	4658      	mov	r0, fp
    1c8a:	f7ff fffe 	bl	0 <__aeabi_fadd>
    1c8e:	f8d6 1284 	ldr.w	r1, [r6, #644]	; 0x284
    1c92:	4605      	mov	r5, r0
    1c94:	9806      	ldr	r0, [sp, #24]
    1c96:	f7ff fffe 	bl	0 <__aeabi_fmul>
    1c9a:	4601      	mov	r1, r0
    1c9c:	4628      	mov	r0, r5
    1c9e:	f7ff fffe 	bl	0 <__aeabi_fadd>
    1ca2:	f8d6 12b8 	ldr.w	r1, [r6, #696]	; 0x2b8
    1ca6:	4683      	mov	fp, r0
    1ca8:	9805      	ldr	r0, [sp, #20]
    1caa:	f7ff fffe 	bl	0 <__aeabi_fmul>
    1cae:	4601      	mov	r1, r0
    1cb0:	4658      	mov	r0, fp
    1cb2:	f7ff fffe 	bl	0 <__aeabi_fadd>
    1cb6:	9023      	str	r0, [sp, #140]	; 0x8c
    1cb8:	6cf1      	ldr	r1, [r6, #76]	; 0x4c
    1cba:	9033      	str	r0, [sp, #204]	; 0xcc
    1cbc:	4650      	mov	r0, sl
    1cbe:	f7ff fffe 	bl	0 <__aeabi_fmul>
    1cc2:	2100      	movs	r1, #0
    1cc4:	f7ff fffe 	bl	0 <__aeabi_fadd>
    1cc8:	f8d6 1080 	ldr.w	r1, [r6, #128]	; 0x80
    1ccc:	4605      	mov	r5, r0
    1cce:	4648      	mov	r0, r9
    1cd0:	f7ff fffe 	bl	0 <__aeabi_fmul>
    1cd4:	4601      	mov	r1, r0
    1cd6:	4628      	mov	r0, r5
    1cd8:	f7ff fffe 	bl	0 <__aeabi_fadd>
    1cdc:	f8d6 10b4 	ldr.w	r1, [r6, #180]	; 0xb4
    1ce0:	4683      	mov	fp, r0
    1ce2:	4640      	mov	r0, r8
    1ce4:	f7ff fffe 	bl	0 <__aeabi_fmul>
    1ce8:	4601      	mov	r1, r0
    1cea:	4658      	mov	r0, fp
    1cec:	f7ff fffe 	bl	0 <__aeabi_fadd>
    1cf0:	f8d6 10e8 	ldr.w	r1, [r6, #232]	; 0xe8
    1cf4:	4605      	mov	r5, r0
    1cf6:	4638      	mov	r0, r7
    1cf8:	f7ff fffe 	bl	0 <__aeabi_fmul>
    1cfc:	4601      	mov	r1, r0
    1cfe:	4628      	mov	r0, r5
    1d00:	f7ff fffe 	bl	0 <__aeabi_fadd>
    1d04:	f8d6 111c 	ldr.w	r1, [r6, #284]	; 0x11c
    1d08:	4683      	mov	fp, r0
    1d0a:	4620      	mov	r0, r4
    1d0c:	f7ff fffe 	bl	0 <__aeabi_fmul>
    1d10:	4601      	mov	r1, r0
    1d12:	4658      	mov	r0, fp
    1d14:	f7ff fffe 	bl	0 <__aeabi_fadd>
    1d18:	f8d6 1150 	ldr.w	r1, [r6, #336]	; 0x150
    1d1c:	4605      	mov	r5, r0
    1d1e:	980c      	ldr	r0, [sp, #48]	; 0x30
    1d20:	f7ff fffe 	bl	0 <__aeabi_fmul>
    1d24:	4601      	mov	r1, r0
    1d26:	4628      	mov	r0, r5
    1d28:	f7ff fffe 	bl	0 <__aeabi_fadd>
    1d2c:	f8d6 1184 	ldr.w	r1, [r6, #388]	; 0x184
    1d30:	4683      	mov	fp, r0
    1d32:	980b      	ldr	r0, [sp, #44]	; 0x2c
    1d34:	f7ff fffe 	bl	0 <__aeabi_fmul>
    1d38:	4601      	mov	r1, r0
    1d3a:	4658      	mov	r0, fp
    1d3c:	f7ff fffe 	bl	0 <__aeabi_fadd>
    1d40:	f8d6 11b8 	ldr.w	r1, [r6, #440]	; 0x1b8
    1d44:	4605      	mov	r5, r0
    1d46:	980a      	ldr	r0, [sp, #40]	; 0x28
    1d48:	f7ff fffe 	bl	0 <__aeabi_fmul>
    1d4c:	4601      	mov	r1, r0
    1d4e:	4628      	mov	r0, r5
    1d50:	f7ff fffe 	bl	0 <__aeabi_fadd>
    1d54:	f8d6 11ec 	ldr.w	r1, [r6, #492]	; 0x1ec
    1d58:	4683      	mov	fp, r0
    1d5a:	9809      	ldr	r0, [sp, #36]	; 0x24
    1d5c:	f7ff fffe 	bl	0 <__aeabi_fmul>
    1d60:	4601      	mov	r1, r0
    1d62:	4658      	mov	r0, fp
    1d64:	f7ff fffe 	bl	0 <__aeabi_fadd>
    1d68:	f8d6 1220 	ldr.w	r1, [r6, #544]	; 0x220
    1d6c:	4605      	mov	r5, r0
    1d6e:	9808      	ldr	r0, [sp, #32]
    1d70:	f7ff fffe 	bl	0 <__aeabi_fmul>
    1d74:	4601      	mov	r1, r0
    1d76:	4628      	mov	r0, r5
    1d78:	f7ff fffe 	bl	0 <__aeabi_fadd>
    1d7c:	f8d6 1254 	ldr.w	r1, [r6, #596]	; 0x254
    1d80:	4683      	mov	fp, r0
    1d82:	9807      	ldr	r0, [sp, #28]
    1d84:	f7ff fffe 	bl	0 <__aeabi_fmul>
    1d88:	4601      	mov	r1, r0
    1d8a:	4658      	mov	r0, fp
    1d8c:	f7ff fffe 	bl	0 <__aeabi_fadd>
    1d90:	f8d6 1288 	ldr.w	r1, [r6, #648]	; 0x288
    1d94:	4605      	mov	r5, r0
    1d96:	9806      	ldr	r0, [sp, #24]
    1d98:	f7ff fffe 	bl	0 <__aeabi_fmul>
    1d9c:	4601      	mov	r1, r0
    1d9e:	4628      	mov	r0, r5
    1da0:	f7ff fffe 	bl	0 <__aeabi_fadd>
    1da4:	f8d6 12bc 	ldr.w	r1, [r6, #700]	; 0x2bc
    1da8:	4683      	mov	fp, r0
    1daa:	9805      	ldr	r0, [sp, #20]
    1dac:	f7ff fffe 	bl	0 <__aeabi_fmul>
    1db0:	4601      	mov	r1, r0
    1db2:	4658      	mov	r0, fp
    1db4:	f7ff fffe 	bl	0 <__aeabi_fadd>
    1db8:	9019      	str	r0, [sp, #100]	; 0x64
    1dba:	6d31      	ldr	r1, [r6, #80]	; 0x50
    1dbc:	9034      	str	r0, [sp, #208]	; 0xd0
    1dbe:	4650      	mov	r0, sl
    1dc0:	f7ff fffe 	bl	0 <__aeabi_fmul>
    1dc4:	2100      	movs	r1, #0
    1dc6:	f7ff fffe 	bl	0 <__aeabi_fadd>
    1dca:	f8d6 1084 	ldr.w	r1, [r6, #132]	; 0x84
    1dce:	4605      	mov	r5, r0
    1dd0:	4648      	mov	r0, r9
    1dd2:	f7ff fffe 	bl	0 <__aeabi_fmul>
    1dd6:	4601      	mov	r1, r0
    1dd8:	4628      	mov	r0, r5
    1dda:	f7ff fffe 	bl	0 <__aeabi_fadd>
    1dde:	f8d6 10b8 	ldr.w	r1, [r6, #184]	; 0xb8
    1de2:	4683      	mov	fp, r0
    1de4:	4640      	mov	r0, r8
    1de6:	f7ff fffe 	bl	0 <__aeabi_fmul>
    1dea:	4601      	mov	r1, r0
    1dec:	4658      	mov	r0, fp
    1dee:	f7ff fffe 	bl	0 <__aeabi_fadd>
    1df2:	f8d6 10ec 	ldr.w	r1, [r6, #236]	; 0xec
    1df6:	4605      	mov	r5, r0
    1df8:	4638      	mov	r0, r7
    1dfa:	f7ff fffe 	bl	0 <__aeabi_fmul>
    1dfe:	4601      	mov	r1, r0
    1e00:	4628      	mov	r0, r5
    1e02:	f7ff fffe 	bl	0 <__aeabi_fadd>
    1e06:	f8d6 1120 	ldr.w	r1, [r6, #288]	; 0x120
    1e0a:	4683      	mov	fp, r0
    1e0c:	4620      	mov	r0, r4
    1e0e:	f7ff fffe 	bl	0 <__aeabi_fmul>
    1e12:	4601      	mov	r1, r0
    1e14:	4658      	mov	r0, fp
    1e16:	f7ff fffe 	bl	0 <__aeabi_fadd>
    1e1a:	f8d6 1154 	ldr.w	r1, [r6, #340]	; 0x154
    1e1e:	4605      	mov	r5, r0
    1e20:	980c      	ldr	r0, [sp, #48]	; 0x30
    1e22:	f7ff fffe 	bl	0 <__aeabi_fmul>
    1e26:	4601      	mov	r1, r0
    1e28:	4628      	mov	r0, r5
    1e2a:	f7ff fffe 	bl	0 <__aeabi_fadd>
    1e2e:	f8d6 1188 	ldr.w	r1, [r6, #392]	; 0x188
    1e32:	4683      	mov	fp, r0
    1e34:	980b      	ldr	r0, [sp, #44]	; 0x2c
    1e36:	f7ff fffe 	bl	0 <__aeabi_fmul>
    1e3a:	4601      	mov	r1, r0
    1e3c:	4658      	mov	r0, fp
    1e3e:	f7ff fffe 	bl	0 <__aeabi_fadd>
    1e42:	f8d6 11bc 	ldr.w	r1, [r6, #444]	; 0x1bc
    1e46:	4605      	mov	r5, r0
    1e48:	980a      	ldr	r0, [sp, #40]	; 0x28
    1e4a:	f7ff fffe 	bl	0 <__aeabi_fmul>
    1e4e:	4601      	mov	r1, r0
    1e50:	4628      	mov	r0, r5
    1e52:	f7ff fffe 	bl	0 <__aeabi_fadd>
    1e56:	f8d6 11f0 	ldr.w	r1, [r6, #496]	; 0x1f0
    1e5a:	4683      	mov	fp, r0
    1e5c:	9809      	ldr	r0, [sp, #36]	; 0x24
    1e5e:	f7ff fffe 	bl	0 <__aeabi_fmul>
    1e62:	4601      	mov	r1, r0
    1e64:	4658      	mov	r0, fp
    1e66:	f7ff fffe 	bl	0 <__aeabi_fadd>
    1e6a:	f8d6 1224 	ldr.w	r1, [r6, #548]	; 0x224
    1e6e:	4605      	mov	r5, r0
    1e70:	9808      	ldr	r0, [sp, #32]
    1e72:	f7ff fffe 	bl	0 <__aeabi_fmul>
    1e76:	4601      	mov	r1, r0
    1e78:	4628      	mov	r0, r5
    1e7a:	f7ff fffe 	bl	0 <__aeabi_fadd>
    1e7e:	f8d6 1258 	ldr.w	r1, [r6, #600]	; 0x258
    1e82:	4683      	mov	fp, r0
    1e84:	9807      	ldr	r0, [sp, #28]
    1e86:	f7ff fffe 	bl	0 <__aeabi_fmul>
    1e8a:	4601      	mov	r1, r0
    1e8c:	4658      	mov	r0, fp
    1e8e:	f7ff fffe 	bl	0 <__aeabi_fadd>
    1e92:	f8d6 128c 	ldr.w	r1, [r6, #652]	; 0x28c
    1e96:	4605      	mov	r5, r0
    1e98:	9806      	ldr	r0, [sp, #24]
    1e9a:	f7ff fffe 	bl	0 <__aeabi_fmul>
    1e9e:	4601      	mov	r1, r0
    1ea0:	4628      	mov	r0, r5
    1ea2:	f7ff fffe 	bl	0 <__aeabi_fadd>
    1ea6:	f8d6 12c0 	ldr.w	r1, [r6, #704]	; 0x2c0
    1eaa:	4683      	mov	fp, r0
    1eac:	9805      	ldr	r0, [sp, #20]
    1eae:	f7ff fffe 	bl	0 <__aeabi_fmul>
    1eb2:	4601      	mov	r1, r0
    1eb4:	4658      	mov	r0, fp
    1eb6:	f7ff fffe 	bl	0 <__aeabi_fadd>
    1eba:	9024      	str	r0, [sp, #144]	; 0x90
    1ebc:	6d71      	ldr	r1, [r6, #84]	; 0x54
    1ebe:	9035      	str	r0, [sp, #212]	; 0xd4
    1ec0:	4650      	mov	r0, sl
    1ec2:	f7ff fffe 	bl	0 <__aeabi_fmul>
    1ec6:	2100      	movs	r1, #0
    1ec8:	f7ff fffe 	bl	0 <__aeabi_fadd>
    1ecc:	f8d6 1088 	ldr.w	r1, [r6, #136]	; 0x88
    1ed0:	4605      	mov	r5, r0
    1ed2:	4648      	mov	r0, r9
    1ed4:	f7ff fffe 	bl	0 <__aeabi_fmul>
    1ed8:	4601      	mov	r1, r0
    1eda:	4628      	mov	r0, r5
    1edc:	f7ff fffe 	bl	0 <__aeabi_fadd>
    1ee0:	f8d6 10bc 	ldr.w	r1, [r6, #188]	; 0xbc
    1ee4:	4683      	mov	fp, r0
    1ee6:	4640      	mov	r0, r8
    1ee8:	f7ff fffe 	bl	0 <__aeabi_fmul>
    1eec:	4601      	mov	r1, r0
    1eee:	4658      	mov	r0, fp
    1ef0:	f7ff fffe 	bl	0 <__aeabi_fadd>
    1ef4:	f8d6 10f0 	ldr.w	r1, [r6, #240]	; 0xf0
    1ef8:	4605      	mov	r5, r0
    1efa:	4638      	mov	r0, r7
    1efc:	f7ff fffe 	bl	0 <__aeabi_fmul>
    1f00:	4601      	mov	r1, r0
    1f02:	4628      	mov	r0, r5
    1f04:	f7ff fffe 	bl	0 <__aeabi_fadd>
    1f08:	f8d6 1124 	ldr.w	r1, [r6, #292]	; 0x124
    1f0c:	4683      	mov	fp, r0
    1f0e:	4620      	mov	r0, r4
    1f10:	f7ff fffe 	bl	0 <__aeabi_fmul>
    1f14:	4601      	mov	r1, r0
    1f16:	4658      	mov	r0, fp
    1f18:	f7ff fffe 	bl	0 <__aeabi_fadd>
    1f1c:	f8d6 1158 	ldr.w	r1, [r6, #344]	; 0x158
    1f20:	4605      	mov	r5, r0
    1f22:	980c      	ldr	r0, [sp, #48]	; 0x30
    1f24:	f7ff fffe 	bl	0 <__aeabi_fmul>
    1f28:	4601      	mov	r1, r0
    1f2a:	4628      	mov	r0, r5
    1f2c:	f7ff fffe 	bl	0 <__aeabi_fadd>
    1f30:	f8d6 118c 	ldr.w	r1, [r6, #396]	; 0x18c
    1f34:	4683      	mov	fp, r0
    1f36:	980b      	ldr	r0, [sp, #44]	; 0x2c
    1f38:	f7ff fffe 	bl	0 <__aeabi_fmul>
    1f3c:	4601      	mov	r1, r0
    1f3e:	4658      	mov	r0, fp
    1f40:	f7ff fffe 	bl	0 <__aeabi_fadd>
    1f44:	f8d6 11c0 	ldr.w	r1, [r6, #448]	; 0x1c0
    1f48:	4605      	mov	r5, r0
    1f4a:	980a      	ldr	r0, [sp, #40]	; 0x28
    1f4c:	f7ff fffe 	bl	0 <__aeabi_fmul>
    1f50:	4601      	mov	r1, r0
    1f52:	4628      	mov	r0, r5
    1f54:	f7ff fffe 	bl	0 <__aeabi_fadd>
    1f58:	f8d6 11f4 	ldr.w	r1, [r6, #500]	; 0x1f4
    1f5c:	4683      	mov	fp, r0
    1f5e:	9809      	ldr	r0, [sp, #36]	; 0x24
    1f60:	f7ff fffe 	bl	0 <__aeabi_fmul>
    1f64:	4601      	mov	r1, r0
    1f66:	4658      	mov	r0, fp
    1f68:	f7ff fffe 	bl	0 <__aeabi_fadd>
    1f6c:	f8d6 1228 	ldr.w	r1, [r6, #552]	; 0x228
    1f70:	4605      	mov	r5, r0
    1f72:	9808      	ldr	r0, [sp, #32]
    1f74:	f7ff fffe 	bl	0 <__aeabi_fmul>
    1f78:	4601      	mov	r1, r0
    1f7a:	4628      	mov	r0, r5
    1f7c:	f7ff fffe 	bl	0 <__aeabi_fadd>
    1f80:	f8d6 125c 	ldr.w	r1, [r6, #604]	; 0x25c
    1f84:	4683      	mov	fp, r0
    1f86:	9807      	ldr	r0, [sp, #28]
    1f88:	f7ff fffe 	bl	0 <__aeabi_fmul>
    1f8c:	4601      	mov	r1, r0
    1f8e:	4658      	mov	r0, fp
    1f90:	f7ff fffe 	bl	0 <__aeabi_fadd>
    1f94:	f8d6 1290 	ldr.w	r1, [r6, #656]	; 0x290
    1f98:	4605      	mov	r5, r0
    1f9a:	9806      	ldr	r0, [sp, #24]
    1f9c:	f7ff fffe 	bl	0 <__aeabi_fmul>
    1fa0:	4601      	mov	r1, r0
    1fa2:	4628      	mov	r0, r5
    1fa4:	f7ff fffe 	bl	0 <__aeabi_fadd>
    1fa8:	f8d6 12c4 	ldr.w	r1, [r6, #708]	; 0x2c4
    1fac:	4683      	mov	fp, r0
    1fae:	9805      	ldr	r0, [sp, #20]
    1fb0:	f7ff fffe 	bl	0 <__aeabi_fmul>
    1fb4:	4601      	mov	r1, r0
    1fb6:	4658      	mov	r0, fp
    1fb8:	f7ff fffe 	bl	0 <__aeabi_fadd>
    1fbc:	9025      	str	r0, [sp, #148]	; 0x94
    1fbe:	6db1      	ldr	r1, [r6, #88]	; 0x58
    1fc0:	9036      	str	r0, [sp, #216]	; 0xd8
    1fc2:	4650      	mov	r0, sl
    1fc4:	f7ff fffe 	bl	0 <__aeabi_fmul>
    1fc8:	2100      	movs	r1, #0
    1fca:	f7ff fffe 	bl	0 <__aeabi_fadd>
    1fce:	f8d6 108c 	ldr.w	r1, [r6, #140]	; 0x8c
    1fd2:	4605      	mov	r5, r0
    1fd4:	4648      	mov	r0, r9
    1fd6:	f7ff fffe 	bl	0 <__aeabi_fmul>
    1fda:	4601      	mov	r1, r0
    1fdc:	4628      	mov	r0, r5
    1fde:	f7ff fffe 	bl	0 <__aeabi_fadd>
    1fe2:	f8d6 10c0 	ldr.w	r1, [r6, #192]	; 0xc0
    1fe6:	4683      	mov	fp, r0
    1fe8:	4640      	mov	r0, r8
    1fea:	f7ff fffe 	bl	0 <__aeabi_fmul>
    1fee:	4601      	mov	r1, r0
    1ff0:	4658      	mov	r0, fp
    1ff2:	f7ff fffe 	bl	0 <__aeabi_fadd>
    1ff6:	f8d6 10f4 	ldr.w	r1, [r6, #244]	; 0xf4
    1ffa:	4605      	mov	r5, r0
    1ffc:	4638      	mov	r0, r7
    1ffe:	f7ff fffe 	bl	0 <__aeabi_fmul>
    2002:	4601      	mov	r1, r0
    2004:	4628      	mov	r0, r5
    2006:	f7ff fffe 	bl	0 <__aeabi_fadd>
    200a:	f8d6 1128 	ldr.w	r1, [r6, #296]	; 0x128
    200e:	4683      	mov	fp, r0
    2010:	4620      	mov	r0, r4
    2012:	f7ff fffe 	bl	0 <__aeabi_fmul>
    2016:	4601      	mov	r1, r0
    2018:	4658      	mov	r0, fp
    201a:	f7ff fffe 	bl	0 <__aeabi_fadd>
    201e:	f8d6 115c 	ldr.w	r1, [r6, #348]	; 0x15c
    2022:	4605      	mov	r5, r0
    2024:	980c      	ldr	r0, [sp, #48]	; 0x30
    2026:	f7ff fffe 	bl	0 <__aeabi_fmul>
    202a:	4601      	mov	r1, r0
    202c:	4628      	mov	r0, r5
    202e:	f7ff fffe 	bl	0 <__aeabi_fadd>
    2032:	f8d6 1190 	ldr.w	r1, [r6, #400]	; 0x190
    2036:	4683      	mov	fp, r0
    2038:	980b      	ldr	r0, [sp, #44]	; 0x2c
    203a:	f7ff fffe 	bl	0 <__aeabi_fmul>
    203e:	4601      	mov	r1, r0
    2040:	4658      	mov	r0, fp
    2042:	f7ff fffe 	bl	0 <__aeabi_fadd>
    2046:	f8d6 11c4 	ldr.w	r1, [r6, #452]	; 0x1c4
    204a:	4605      	mov	r5, r0
    204c:	980a      	ldr	r0, [sp, #40]	; 0x28
    204e:	f7ff fffe 	bl	0 <__aeabi_fmul>
    2052:	4601      	mov	r1, r0
    2054:	4628      	mov	r0, r5
    2056:	f7ff fffe 	bl	0 <__aeabi_fadd>
    205a:	f8d6 11f8 	ldr.w	r1, [r6, #504]	; 0x1f8
    205e:	4683      	mov	fp, r0
    2060:	9809      	ldr	r0, [sp, #36]	; 0x24
    2062:	f7ff fffe 	bl	0 <__aeabi_fmul>
    2066:	4601      	mov	r1, r0
    2068:	4658      	mov	r0, fp
    206a:	f7ff fffe 	bl	0 <__aeabi_fadd>
    206e:	f8d6 122c 	ldr.w	r1, [r6, #556]	; 0x22c
    2072:	4605      	mov	r5, r0
    2074:	9808      	ldr	r0, [sp, #32]
    2076:	f7ff fffe 	bl	0 <__aeabi_fmul>
    207a:	4601      	mov	r1, r0
    207c:	4628      	mov	r0, r5
    207e:	f7ff fffe 	bl	0 <__aeabi_fadd>
    2082:	f8d6 1260 	ldr.w	r1, [r6, #608]	; 0x260
    2086:	4683      	mov	fp, r0
    2088:	9807      	ldr	r0, [sp, #28]
    208a:	f7ff fffe 	bl	0 <__aeabi_fmul>
    208e:	4601      	mov	r1, r0
    2090:	4658      	mov	r0, fp
    2092:	f7ff fffe 	bl	0 <__aeabi_fadd>
    2096:	f8d6 1294 	ldr.w	r1, [r6, #660]	; 0x294
    209a:	4605      	mov	r5, r0
    209c:	9806      	ldr	r0, [sp, #24]
    209e:	f7ff fffe 	bl	0 <__aeabi_fmul>
    20a2:	4601      	mov	r1, r0
    20a4:	4628      	mov	r0, r5
    20a6:	f7ff fffe 	bl	0 <__aeabi_fadd>
    20aa:	f8d6 12c8 	ldr.w	r1, [r6, #712]	; 0x2c8
    20ae:	4683      	mov	fp, r0
    20b0:	9805      	ldr	r0, [sp, #20]
    20b2:	f7ff fffe 	bl	0 <__aeabi_fmul>
    20b6:	4601      	mov	r1, r0
    20b8:	4658      	mov	r0, fp
    20ba:	f7ff fffe 	bl	0 <__aeabi_fadd>
    20be:	9026      	str	r0, [sp, #152]	; 0x98
    20c0:	6df1      	ldr	r1, [r6, #92]	; 0x5c
    20c2:	9037      	str	r0, [sp, #220]	; 0xdc
    20c4:	4650      	mov	r0, sl
    20c6:	f7ff fffe 	bl	0 <__aeabi_fmul>
    20ca:	2100      	movs	r1, #0
    20cc:	f7ff fffe 	bl	0 <__aeabi_fadd>
    20d0:	f8d6 1090 	ldr.w	r1, [r6, #144]	; 0x90
    20d4:	4605      	mov	r5, r0
    20d6:	4648      	mov	r0, r9
    20d8:	f7ff fffe 	bl	0 <__aeabi_fmul>
    20dc:	4601      	mov	r1, r0
    20de:	4628      	mov	r0, r5
    20e0:	f7ff fffe 	bl	0 <__aeabi_fadd>
    20e4:	f8d6 10c4 	ldr.w	r1, [r6, #196]	; 0xc4
    20e8:	4683      	mov	fp, r0
    20ea:	4640      	mov	r0, r8
    20ec:	f7ff fffe 	bl	0 <__aeabi_fmul>
    20f0:	4601      	mov	r1, r0
    20f2:	4658      	mov	r0, fp
    20f4:	f7ff fffe 	bl	0 <__aeabi_fadd>
    20f8:	f8d6 10f8 	ldr.w	r1, [r6, #248]	; 0xf8
    20fc:	4605      	mov	r5, r0
    20fe:	4638      	mov	r0, r7
    2100:	f7ff fffe 	bl	0 <__aeabi_fmul>
    2104:	4601      	mov	r1, r0
    2106:	4628      	mov	r0, r5
    2108:	f7ff fffe 	bl	0 <__aeabi_fadd>
    210c:	f8d6 112c 	ldr.w	r1, [r6, #300]	; 0x12c
    2110:	4683      	mov	fp, r0
    2112:	4620      	mov	r0, r4
    2114:	f7ff fffe 	bl	0 <__aeabi_fmul>
    2118:	4601      	mov	r1, r0
    211a:	4658      	mov	r0, fp
    211c:	f7ff fffe 	bl	0 <__aeabi_fadd>
    2120:	f8d6 1160 	ldr.w	r1, [r6, #352]	; 0x160
    2124:	4605      	mov	r5, r0
    2126:	980c      	ldr	r0, [sp, #48]	; 0x30
    2128:	f7ff fffe 	bl	0 <__aeabi_fmul>
    212c:	4601      	mov	r1, r0
    212e:	4628      	mov	r0, r5
    2130:	f7ff fffe 	bl	0 <__aeabi_fadd>
    2134:	f8d6 1194 	ldr.w	r1, [r6, #404]	; 0x194
    2138:	4683      	mov	fp, r0
    213a:	980b      	ldr	r0, [sp, #44]	; 0x2c
    213c:	f7ff fffe 	bl	0 <__aeabi_fmul>
    2140:	4601      	mov	r1, r0
    2142:	4658      	mov	r0, fp
    2144:	f7ff fffe 	bl	0 <__aeabi_fadd>
    2148:	f8d6 11c8 	ldr.w	r1, [r6, #456]	; 0x1c8
    214c:	4605      	mov	r5, r0
    214e:	980a      	ldr	r0, [sp, #40]	; 0x28
    2150:	f7ff fffe 	bl	0 <__aeabi_fmul>
    2154:	4601      	mov	r1, r0
    2156:	4628      	mov	r0, r5
    2158:	f7ff fffe 	bl	0 <__aeabi_fadd>
    215c:	f8d6 11fc 	ldr.w	r1, [r6, #508]	; 0x1fc
    2160:	4683      	mov	fp, r0
    2162:	9809      	ldr	r0, [sp, #36]	; 0x24
    2164:	f7ff fffe 	bl	0 <__aeabi_fmul>
    2168:	4601      	mov	r1, r0
    216a:	4658      	mov	r0, fp
    216c:	f7ff fffe 	bl	0 <__aeabi_fadd>
    2170:	f8d6 1230 	ldr.w	r1, [r6, #560]	; 0x230
    2174:	4605      	mov	r5, r0
    2176:	9808      	ldr	r0, [sp, #32]
    2178:	f7ff fffe 	bl	0 <__aeabi_fmul>
    217c:	4601      	mov	r1, r0
    217e:	4628      	mov	r0, r5
    2180:	f7ff fffe 	bl	0 <__aeabi_fadd>
    2184:	f8d6 1264 	ldr.w	r1, [r6, #612]	; 0x264
    2188:	4683      	mov	fp, r0
    218a:	9807      	ldr	r0, [sp, #28]
    218c:	f7ff fffe 	bl	0 <__aeabi_fmul>
    2190:	4601      	mov	r1, r0
    2192:	4658      	mov	r0, fp
    2194:	f7ff fffe 	bl	0 <__aeabi_fadd>
    2198:	f8d6 1298 	ldr.w	r1, [r6, #664]	; 0x298
    219c:	4605      	mov	r5, r0
    219e:	9806      	ldr	r0, [sp, #24]
    21a0:	f7ff fffe 	bl	0 <__aeabi_fmul>
    21a4:	4601      	mov	r1, r0
    21a6:	4628      	mov	r0, r5
    21a8:	f7ff fffe 	bl	0 <__aeabi_fadd>
    21ac:	f8d6 12cc 	ldr.w	r1, [r6, #716]	; 0x2cc
    21b0:	4683      	mov	fp, r0
    21b2:	9805      	ldr	r0, [sp, #20]
    21b4:	f7ff fffe 	bl	0 <__aeabi_fmul>
    21b8:	4601      	mov	r1, r0
    21ba:	4658      	mov	r0, fp
    21bc:	f7ff fffe 	bl	0 <__aeabi_fadd>
    21c0:	4603      	mov	r3, r0
    21c2:	9038      	str	r0, [sp, #224]	; 0xe0
    21c4:	6e31      	ldr	r1, [r6, #96]	; 0x60
    21c6:	4650      	mov	r0, sl
    21c8:	9302      	str	r3, [sp, #8]
    21ca:	f7ff fffe 	bl	0 <__aeabi_fmul>
    21ce:	2100      	movs	r1, #0
    21d0:	f7ff fffe 	bl	0 <__aeabi_fadd>
    21d4:	f8d6 1094 	ldr.w	r1, [r6, #148]	; 0x94
    21d8:	4605      	mov	r5, r0
    21da:	4648      	mov	r0, r9
    21dc:	f7ff fffe 	bl	0 <__aeabi_fmul>
    21e0:	4601      	mov	r1, r0
    21e2:	4628      	mov	r0, r5
    21e4:	f7ff fffe 	bl	0 <__aeabi_fadd>
    21e8:	f8d6 10c8 	ldr.w	r1, [r6, #200]	; 0xc8
    21ec:	4683      	mov	fp, r0
    21ee:	4640      	mov	r0, r8
    21f0:	f7ff fffe 	bl	0 <__aeabi_fmul>
    21f4:	4601      	mov	r1, r0
    21f6:	4658      	mov	r0, fp
    21f8:	f7ff fffe 	bl	0 <__aeabi_fadd>
    21fc:	f8d6 10fc 	ldr.w	r1, [r6, #252]	; 0xfc
    2200:	4605      	mov	r5, r0
    2202:	4638      	mov	r0, r7
    2204:	f7ff fffe 	bl	0 <__aeabi_fmul>
    2208:	4601      	mov	r1, r0
    220a:	4628      	mov	r0, r5
    220c:	f7ff fffe 	bl	0 <__aeabi_fadd>
    2210:	f8d6 1130 	ldr.w	r1, [r6, #304]	; 0x130
    2214:	4683      	mov	fp, r0
    2216:	4620      	mov	r0, r4
    2218:	f7ff fffe 	bl	0 <__aeabi_fmul>
    221c:	4601      	mov	r1, r0
    221e:	4658      	mov	r0, fp
    2220:	f7ff fffe 	bl	0 <__aeabi_fadd>
    2224:	f8d6 1164 	ldr.w	r1, [r6, #356]	; 0x164
    2228:	4605      	mov	r5, r0
    222a:	980c      	ldr	r0, [sp, #48]	; 0x30
    222c:	f7ff fffe 	bl	0 <__aeabi_fmul>
    2230:	4601      	mov	r1, r0
    2232:	4628      	mov	r0, r5
    2234:	f7ff fffe 	bl	0 <__aeabi_fadd>
    2238:	f8d6 1198 	ldr.w	r1, [r6, #408]	; 0x198
    223c:	4683      	mov	fp, r0
    223e:	980b      	ldr	r0, [sp, #44]	; 0x2c
    2240:	f7ff fffe 	bl	0 <__aeabi_fmul>
    2244:	4601      	mov	r1, r0
    2246:	4658      	mov	r0, fp
    2248:	f7ff fffe 	bl	0 <__aeabi_fadd>
    224c:	f8d6 11cc 	ldr.w	r1, [r6, #460]	; 0x1cc
    2250:	4605      	mov	r5, r0
    2252:	980a      	ldr	r0, [sp, #40]	; 0x28
    2254:	f7ff fffe 	bl	0 <__aeabi_fmul>
    2258:	4601      	mov	r1, r0
    225a:	4628      	mov	r0, r5
    225c:	f7ff fffe 	bl	0 <__aeabi_fadd>
    2260:	f8d6 1200 	ldr.w	r1, [r6, #512]	; 0x200
    2264:	4683      	mov	fp, r0
    2266:	9809      	ldr	r0, [sp, #36]	; 0x24
    2268:	f7ff fffe 	bl	0 <__aeabi_fmul>
    226c:	4601      	mov	r1, r0
    226e:	4658      	mov	r0, fp
    2270:	f7ff fffe 	bl	0 <__aeabi_fadd>
    2274:	f8d6 1234 	ldr.w	r1, [r6, #564]	; 0x234
    2278:	4605      	mov	r5, r0
    227a:	9808      	ldr	r0, [sp, #32]
    227c:	f7ff fffe 	bl	0 <__aeabi_fmul>
    2280:	4601      	mov	r1, r0
    2282:	4628      	mov	r0, r5
    2284:	f7ff fffe 	bl	0 <__aeabi_fadd>
    2288:	f8d6 1268 	ldr.w	r1, [r6, #616]	; 0x268
    228c:	4683      	mov	fp, r0
    228e:	9807      	ldr	r0, [sp, #28]
    2290:	f7ff fffe 	bl	0 <__aeabi_fmul>
    2294:	4601      	mov	r1, r0
    2296:	4658      	mov	r0, fp
    2298:	f7ff fffe 	bl	0 <__aeabi_fadd>
    229c:	f8d6 129c 	ldr.w	r1, [r6, #668]	; 0x29c
    22a0:	4605      	mov	r5, r0
    22a2:	9806      	ldr	r0, [sp, #24]
    22a4:	f7ff fffe 	bl	0 <__aeabi_fmul>
    22a8:	4601      	mov	r1, r0
    22aa:	4628      	mov	r0, r5
    22ac:	f7ff fffe 	bl	0 <__aeabi_fadd>
    22b0:	f8d6 12d0 	ldr.w	r1, [r6, #720]	; 0x2d0
    22b4:	4683      	mov	fp, r0
    22b6:	9805      	ldr	r0, [sp, #20]
    22b8:	f7ff fffe 	bl	0 <__aeabi_fmul>
    22bc:	4601      	mov	r1, r0
    22be:	4658      	mov	r0, fp
    22c0:	f7ff fffe 	bl	0 <__aeabi_fadd>
    22c4:	4684      	mov	ip, r0
    22c6:	9039      	str	r0, [sp, #228]	; 0xe4
    22c8:	6e71      	ldr	r1, [r6, #100]	; 0x64
    22ca:	4650      	mov	r0, sl
    22cc:	f8cd c00c 	str.w	ip, [sp, #12]
    22d0:	f7ff fffe 	bl	0 <__aeabi_fmul>
    22d4:	2100      	movs	r1, #0
    22d6:	f7ff fffe 	bl	0 <__aeabi_fadd>
    22da:	f8d6 1098 	ldr.w	r1, [r6, #152]	; 0x98
    22de:	4605      	mov	r5, r0
    22e0:	4648      	mov	r0, r9
    22e2:	f7ff fffe 	bl	0 <__aeabi_fmul>
    22e6:	4601      	mov	r1, r0
    22e8:	4628      	mov	r0, r5
    22ea:	f7ff fffe 	bl	0 <__aeabi_fadd>
    22ee:	f8d6 10cc 	ldr.w	r1, [r6, #204]	; 0xcc
    22f2:	4683      	mov	fp, r0
    22f4:	4640      	mov	r0, r8
    22f6:	f7ff fffe 	bl	0 <__aeabi_fmul>
    22fa:	4601      	mov	r1, r0
    22fc:	4658      	mov	r0, fp
    22fe:	f7ff fffe 	bl	0 <__aeabi_fadd>
    2302:	f8d6 1100 	ldr.w	r1, [r6, #256]	; 0x100
    2306:	4605      	mov	r5, r0
    2308:	4638      	mov	r0, r7
    230a:	f7ff fffe 	bl	0 <__aeabi_fmul>
    230e:	4601      	mov	r1, r0
    2310:	4628      	mov	r0, r5
    2312:	f7ff fffe 	bl	0 <__aeabi_fadd>
    2316:	f8d6 1134 	ldr.w	r1, [r6, #308]	; 0x134
    231a:	4683      	mov	fp, r0
    231c:	4620      	mov	r0, r4
    231e:	f7ff fffe 	bl	0 <__aeabi_fmul>
    2322:	4601      	mov	r1, r0
    2324:	4658      	mov	r0, fp
    2326:	f7ff fffe 	bl	0 <__aeabi_fadd>
    232a:	f8d6 1168 	ldr.w	r1, [r6, #360]	; 0x168
    232e:	4605      	mov	r5, r0
    2330:	980c      	ldr	r0, [sp, #48]	; 0x30
    2332:	f7ff fffe 	bl	0 <__aeabi_fmul>
    2336:	4601      	mov	r1, r0
    2338:	4628      	mov	r0, r5
    233a:	f7ff fffe 	bl	0 <__aeabi_fadd>
    233e:	f8d6 119c 	ldr.w	r1, [r6, #412]	; 0x19c
    2342:	4683      	mov	fp, r0
    2344:	980b      	ldr	r0, [sp, #44]	; 0x2c
    2346:	f7ff fffe 	bl	0 <__aeabi_fmul>
    234a:	4601      	mov	r1, r0
    234c:	4658      	mov	r0, fp
    234e:	f7ff fffe 	bl	0 <__aeabi_fadd>
    2352:	f8d6 11d0 	ldr.w	r1, [r6, #464]	; 0x1d0
    2356:	4605      	mov	r5, r0
    2358:	980a      	ldr	r0, [sp, #40]	; 0x28
    235a:	f7ff fffe 	bl	0 <__aeabi_fmul>
    235e:	4601      	mov	r1, r0
    2360:	4628      	mov	r0, r5
    2362:	f7ff fffe 	bl	0 <__aeabi_fadd>
    2366:	f8d6 1204 	ldr.w	r1, [r6, #516]	; 0x204
    236a:	4683      	mov	fp, r0
    236c:	9809      	ldr	r0, [sp, #36]	; 0x24
    236e:	f7ff fffe 	bl	0 <__aeabi_fmul>
    2372:	4601      	mov	r1, r0
    2374:	4658      	mov	r0, fp
    2376:	f7ff fffe 	bl	0 <__aeabi_fadd>
    237a:	f8d6 1238 	ldr.w	r1, [r6, #568]	; 0x238
    237e:	4605      	mov	r5, r0
    2380:	9808      	ldr	r0, [sp, #32]
    2382:	f7ff fffe 	bl	0 <__aeabi_fmul>
    2386:	4601      	mov	r1, r0
    2388:	4628      	mov	r0, r5
    238a:	f7ff fffe 	bl	0 <__aeabi_fadd>
    238e:	f8d6 126c 	ldr.w	r1, [r6, #620]	; 0x26c
    2392:	4683      	mov	fp, r0
    2394:	9807      	ldr	r0, [sp, #28]
    2396:	f7ff fffe 	bl	0 <__aeabi_fmul>
    239a:	4601      	mov	r1, r0
    239c:	4658      	mov	r0, fp
    239e:	f7ff fffe 	bl	0 <__aeabi_fadd>
    23a2:	f8d6 12a0 	ldr.w	r1, [r6, #672]	; 0x2a0
    23a6:	4605      	mov	r5, r0
    23a8:	9806      	ldr	r0, [sp, #24]
    23aa:	f7ff fffe 	bl	0 <__aeabi_fmul>
    23ae:	4601      	mov	r1, r0
    23b0:	4628      	mov	r0, r5
    23b2:	f7ff fffe 	bl	0 <__aeabi_fadd>
    23b6:	f8d6 12d4 	ldr.w	r1, [r6, #724]	; 0x2d4
    23ba:	4683      	mov	fp, r0
    23bc:	9805      	ldr	r0, [sp, #20]
    23be:	f7ff fffe 	bl	0 <__aeabi_fmul>
    23c2:	4601      	mov	r1, r0
    23c4:	4658      	mov	r0, fp
    23c6:	f7ff fffe 	bl	0 <__aeabi_fadd>
    23ca:	901b      	str	r0, [sp, #108]	; 0x6c
    23cc:	6eb1      	ldr	r1, [r6, #104]	; 0x68
    23ce:	903a      	str	r0, [sp, #232]	; 0xe8
    23d0:	4650      	mov	r0, sl
    23d2:	f7ff fffe 	bl	0 <__aeabi_fmul>
    23d6:	2100      	movs	r1, #0
    23d8:	f7ff fffe 	bl	0 <__aeabi_fadd>
    23dc:	f8d6 109c 	ldr.w	r1, [r6, #156]	; 0x9c
    23e0:	4605      	mov	r5, r0
    23e2:	4648      	mov	r0, r9
    23e4:	f7ff fffe 	bl	0 <__aeabi_fmul>
    23e8:	4601      	mov	r1, r0
    23ea:	4628      	mov	r0, r5
    23ec:	f7ff fffe 	bl	0 <__aeabi_fadd>
    23f0:	f8d6 10d0 	ldr.w	r1, [r6, #208]	; 0xd0
    23f4:	4683      	mov	fp, r0
    23f6:	4640      	mov	r0, r8
    23f8:	f7ff fffe 	bl	0 <__aeabi_fmul>
    23fc:	4601      	mov	r1, r0
    23fe:	4658      	mov	r0, fp
    2400:	f7ff fffe 	bl	0 <__aeabi_fadd>
    2404:	f8d6 1104 	ldr.w	r1, [r6, #260]	; 0x104
    2408:	4605      	mov	r5, r0
    240a:	4638      	mov	r0, r7
    240c:	f7ff fffe 	bl	0 <__aeabi_fmul>
    2410:	4601      	mov	r1, r0
    2412:	4628      	mov	r0, r5
    2414:	f7ff fffe 	bl	0 <__aeabi_fadd>
    2418:	f8d6 1138 	ldr.w	r1, [r6, #312]	; 0x138
    241c:	4683      	mov	fp, r0
    241e:	4620      	mov	r0, r4
    2420:	f7ff fffe 	bl	0 <__aeabi_fmul>
    2424:	4601      	mov	r1, r0
    2426:	4658      	mov	r0, fp
    2428:	f7ff fffe 	bl	0 <__aeabi_fadd>
    242c:	f8d6 116c 	ldr.w	r1, [r6, #364]	; 0x16c
    2430:	4605      	mov	r5, r0
    2432:	980c      	ldr	r0, [sp, #48]	; 0x30
    2434:	f7ff fffe 	bl	0 <__aeabi_fmul>
    2438:	4601      	mov	r1, r0
    243a:	4628      	mov	r0, r5
    243c:	f7ff fffe 	bl	0 <__aeabi_fadd>
    2440:	f8d6 11a0 	ldr.w	r1, [r6, #416]	; 0x1a0
    2444:	4683      	mov	fp, r0
    2446:	980b      	ldr	r0, [sp, #44]	; 0x2c
    2448:	f7ff fffe 	bl	0 <__aeabi_fmul>
    244c:	4601      	mov	r1, r0
    244e:	4658      	mov	r0, fp
    2450:	f7ff fffe 	bl	0 <__aeabi_fadd>
    2454:	f8d6 11d4 	ldr.w	r1, [r6, #468]	; 0x1d4
    2458:	4605      	mov	r5, r0
    245a:	980a      	ldr	r0, [sp, #40]	; 0x28
    245c:	f7ff fffe 	bl	0 <__aeabi_fmul>
    2460:	4601      	mov	r1, r0
    2462:	4628      	mov	r0, r5
    2464:	f7ff fffe 	bl	0 <__aeabi_fadd>
    2468:	f8d6 1208 	ldr.w	r1, [r6, #520]	; 0x208
    246c:	4683      	mov	fp, r0
    246e:	9809      	ldr	r0, [sp, #36]	; 0x24
    2470:	f7ff fffe 	bl	0 <__aeabi_fmul>
    2474:	4601      	mov	r1, r0
    2476:	4658      	mov	r0, fp
    2478:	f7ff fffe 	bl	0 <__aeabi_fadd>
    247c:	f8d6 123c 	ldr.w	r1, [r6, #572]	; 0x23c
    2480:	4605      	mov	r5, r0
    2482:	9808      	ldr	r0, [sp, #32]
    2484:	f7ff fffe 	bl	0 <__aeabi_fmul>
    2488:	4601      	mov	r1, r0
    248a:	4628      	mov	r0, r5
    248c:	f7ff fffe 	bl	0 <__aeabi_fadd>
    2490:	f8d6 1270 	ldr.w	r1, [r6, #624]	; 0x270
    2494:	4683      	mov	fp, r0
    2496:	9807      	ldr	r0, [sp, #28]
    2498:	f7ff fffe 	bl	0 <__aeabi_fmul>
    249c:	4601      	mov	r1, r0
    249e:	4658      	mov	r0, fp
    24a0:	f7ff fffe 	bl	0 <__aeabi_fadd>
    24a4:	f8d6 12a4 	ldr.w	r1, [r6, #676]	; 0x2a4
    24a8:	4605      	mov	r5, r0
    24aa:	9806      	ldr	r0, [sp, #24]
    24ac:	f7ff fffe 	bl	0 <__aeabi_fmul>
    24b0:	4601      	mov	r1, r0
    24b2:	4628      	mov	r0, r5
    24b4:	f7ff fffe 	bl	0 <__aeabi_fadd>
    24b8:	f8d6 12d8 	ldr.w	r1, [r6, #728]	; 0x2d8
    24bc:	4683      	mov	fp, r0
    24be:	9805      	ldr	r0, [sp, #20]
    24c0:	f7ff fffe 	bl	0 <__aeabi_fmul>
    24c4:	4601      	mov	r1, r0
    24c6:	4658      	mov	r0, fp
    24c8:	f7ff fffe 	bl	0 <__aeabi_fadd>
    24cc:	901c      	str	r0, [sp, #112]	; 0x70
    24ce:	6ef1      	ldr	r1, [r6, #108]	; 0x6c
    24d0:	903b      	str	r0, [sp, #236]	; 0xec
    24d2:	4650      	mov	r0, sl
    24d4:	f7ff fffe 	bl	0 <__aeabi_fmul>
    24d8:	2100      	movs	r1, #0
    24da:	f7ff fffe 	bl	0 <__aeabi_fadd>
    24de:	f8d6 10a0 	ldr.w	r1, [r6, #160]	; 0xa0
    24e2:	4605      	mov	r5, r0
    24e4:	4648      	mov	r0, r9
    24e6:	f7ff fffe 	bl	0 <__aeabi_fmul>
    24ea:	4601      	mov	r1, r0
    24ec:	4628      	mov	r0, r5
    24ee:	f7ff fffe 	bl	0 <__aeabi_fadd>
    24f2:	f8d6 10d4 	ldr.w	r1, [r6, #212]	; 0xd4
    24f6:	4683      	mov	fp, r0
    24f8:	4640      	mov	r0, r8
    24fa:	f7ff fffe 	bl	0 <__aeabi_fmul>
    24fe:	4601      	mov	r1, r0
    2500:	4658      	mov	r0, fp
    2502:	f7ff fffe 	bl	0 <__aeabi_fadd>
    2506:	f8d6 1108 	ldr.w	r1, [r6, #264]	; 0x108
    250a:	4605      	mov	r5, r0
    250c:	4638      	mov	r0, r7
    250e:	f7ff fffe 	bl	0 <__aeabi_fmul>
    2512:	4601      	mov	r1, r0
    2514:	4628      	mov	r0, r5
    2516:	f7ff fffe 	bl	0 <__aeabi_fadd>
    251a:	f8d6 113c 	ldr.w	r1, [r6, #316]	; 0x13c
    251e:	4683      	mov	fp, r0
    2520:	4620      	mov	r0, r4
    2522:	f7ff fffe 	bl	0 <__aeabi_fmul>
    2526:	4601      	mov	r1, r0
    2528:	4658      	mov	r0, fp
    252a:	f7ff fffe 	bl	0 <__aeabi_fadd>
    252e:	f8d6 1170 	ldr.w	r1, [r6, #368]	; 0x170
    2532:	4605      	mov	r5, r0
    2534:	980c      	ldr	r0, [sp, #48]	; 0x30
    2536:	f7ff fffe 	bl	0 <__aeabi_fmul>
    253a:	4601      	mov	r1, r0
    253c:	4628      	mov	r0, r5
    253e:	f7ff fffe 	bl	0 <__aeabi_fadd>
    2542:	f8d6 11a4 	ldr.w	r1, [r6, #420]	; 0x1a4
    2546:	4683      	mov	fp, r0
    2548:	980b      	ldr	r0, [sp, #44]	; 0x2c
    254a:	f7ff fffe 	bl	0 <__aeabi_fmul>
    254e:	4601      	mov	r1, r0
    2550:	4658      	mov	r0, fp
    2552:	f7ff fffe 	bl	0 <__aeabi_fadd>
    2556:	f8d6 11d8 	ldr.w	r1, [r6, #472]	; 0x1d8
    255a:	4605      	mov	r5, r0
    255c:	980a      	ldr	r0, [sp, #40]	; 0x28
    255e:	f7ff fffe 	bl	0 <__aeabi_fmul>
    2562:	4601      	mov	r1, r0
    2564:	4628      	mov	r0, r5
    2566:	f7ff fffe 	bl	0 <__aeabi_fadd>
    256a:	f8d6 120c 	ldr.w	r1, [r6, #524]	; 0x20c
    256e:	4683      	mov	fp, r0
    2570:	9809      	ldr	r0, [sp, #36]	; 0x24
    2572:	f7ff fffe 	bl	0 <__aeabi_fmul>
    2576:	4601      	mov	r1, r0
    2578:	4658      	mov	r0, fp
    257a:	f7ff fffe 	bl	0 <__aeabi_fadd>
    257e:	f8d6 1240 	ldr.w	r1, [r6, #576]	; 0x240
    2582:	4605      	mov	r5, r0
    2584:	9808      	ldr	r0, [sp, #32]
    2586:	f7ff fffe 	bl	0 <__aeabi_fmul>
    258a:	4601      	mov	r1, r0
    258c:	4628      	mov	r0, r5
    258e:	f7ff fffe 	bl	0 <__aeabi_fadd>
    2592:	f8d6 1274 	ldr.w	r1, [r6, #628]	; 0x274
    2596:	4683      	mov	fp, r0
    2598:	9807      	ldr	r0, [sp, #28]
    259a:	f7ff fffe 	bl	0 <__aeabi_fmul>
    259e:	4601      	mov	r1, r0
    25a0:	4658      	mov	r0, fp
    25a2:	f7ff fffe 	bl	0 <__aeabi_fadd>
    25a6:	f8d6 12a8 	ldr.w	r1, [r6, #680]	; 0x2a8
    25aa:	4605      	mov	r5, r0
    25ac:	9806      	ldr	r0, [sp, #24]
    25ae:	f7ff fffe 	bl	0 <__aeabi_fmul>
    25b2:	4601      	mov	r1, r0
    25b4:	4628      	mov	r0, r5
    25b6:	f7ff fffe 	bl	0 <__aeabi_fadd>
    25ba:	f8d6 12dc 	ldr.w	r1, [r6, #732]	; 0x2dc
    25be:	4683      	mov	fp, r0
    25c0:	9805      	ldr	r0, [sp, #20]
    25c2:	f7ff fffe 	bl	0 <__aeabi_fmul>
    25c6:	4601      	mov	r1, r0
    25c8:	4658      	mov	r0, fp
    25ca:	f7ff fffe 	bl	0 <__aeabi_fadd>
    25ce:	4602      	mov	r2, r0
    25d0:	903c      	str	r0, [sp, #240]	; 0xf0
    25d2:	6f31      	ldr	r1, [r6, #112]	; 0x70
    25d4:	4650      	mov	r0, sl
    25d6:	9204      	str	r2, [sp, #16]
    25d8:	f7ff fffe 	bl	0 <__aeabi_fmul>
    25dc:	2100      	movs	r1, #0
    25de:	f7ff fffe 	bl	0 <__aeabi_fadd>
    25e2:	f8d6 10a4 	ldr.w	r1, [r6, #164]	; 0xa4
    25e6:	4605      	mov	r5, r0
    25e8:	4648      	mov	r0, r9
    25ea:	f7ff fffe 	bl	0 <__aeabi_fmul>
    25ee:	4601      	mov	r1, r0
    25f0:	4628      	mov	r0, r5
    25f2:	f7ff fffe 	bl	0 <__aeabi_fadd>
    25f6:	f8d6 10d8 	ldr.w	r1, [r6, #216]	; 0xd8
    25fa:	4683      	mov	fp, r0
    25fc:	4640      	mov	r0, r8
    25fe:	f7ff fffe 	bl	0 <__aeabi_fmul>
    2602:	4601      	mov	r1, r0
    2604:	4658      	mov	r0, fp
    2606:	f7ff fffe 	bl	0 <__aeabi_fadd>
    260a:	f8d6 110c 	ldr.w	r1, [r6, #268]	; 0x10c
    260e:	4605      	mov	r5, r0
    2610:	4638      	mov	r0, r7
    2612:	f7ff fffe 	bl	0 <__aeabi_fmul>
    2616:	4601      	mov	r1, r0
    2618:	4628      	mov	r0, r5
    261a:	f7ff fffe 	bl	0 <__aeabi_fadd>
    261e:	f8d6 1140 	ldr.w	r1, [r6, #320]	; 0x140
    2622:	4683      	mov	fp, r0
    2624:	4620      	mov	r0, r4
    2626:	f7ff fffe 	bl	0 <__aeabi_fmul>
    262a:	4601      	mov	r1, r0
    262c:	4658      	mov	r0, fp
    262e:	f7ff fffe 	bl	0 <__aeabi_fadd>
    2632:	f8d6 1174 	ldr.w	r1, [r6, #372]	; 0x174
    2636:	4605      	mov	r5, r0
    2638:	980c      	ldr	r0, [sp, #48]	; 0x30
    263a:	f7ff fffe 	bl	0 <__aeabi_fmul>
    263e:	4601      	mov	r1, r0
    2640:	4628      	mov	r0, r5
    2642:	f7ff fffe 	bl	0 <__aeabi_fadd>
    2646:	f8d6 11a8 	ldr.w	r1, [r6, #424]	; 0x1a8
    264a:	4683      	mov	fp, r0
    264c:	980b      	ldr	r0, [sp, #44]	; 0x2c
    264e:	f7ff fffe 	bl	0 <__aeabi_fmul>
    2652:	4601      	mov	r1, r0
    2654:	4658      	mov	r0, fp
    2656:	f7ff fffe 	bl	0 <__aeabi_fadd>
    265a:	f8d6 11dc 	ldr.w	r1, [r6, #476]	; 0x1dc
    265e:	4605      	mov	r5, r0
    2660:	980a      	ldr	r0, [sp, #40]	; 0x28
    2662:	f7ff fffe 	bl	0 <__aeabi_fmul>
    2666:	4601      	mov	r1, r0
    2668:	4628      	mov	r0, r5
    266a:	f7ff fffe 	bl	0 <__aeabi_fadd>
    266e:	f8d6 1210 	ldr.w	r1, [r6, #528]	; 0x210
    2672:	4683      	mov	fp, r0
    2674:	9809      	ldr	r0, [sp, #36]	; 0x24
    2676:	f7ff fffe 	bl	0 <__aeabi_fmul>
    267a:	4601      	mov	r1, r0
    267c:	4658      	mov	r0, fp
    267e:	f7ff fffe 	bl	0 <__aeabi_fadd>
    2682:	f8d6 1244 	ldr.w	r1, [r6, #580]	; 0x244
    2686:	4605      	mov	r5, r0
    2688:	9808      	ldr	r0, [sp, #32]
    268a:	f7ff fffe 	bl	0 <__aeabi_fmul>
    268e:	4601      	mov	r1, r0
    2690:	4628      	mov	r0, r5
    2692:	f7ff fffe 	bl	0 <__aeabi_fadd>
    2696:	f8d6 1278 	ldr.w	r1, [r6, #632]	; 0x278
    269a:	4683      	mov	fp, r0
    269c:	9807      	ldr	r0, [sp, #28]
    269e:	f7ff fffe 	bl	0 <__aeabi_fmul>
    26a2:	4601      	mov	r1, r0
    26a4:	4658      	mov	r0, fp
    26a6:	f7ff fffe 	bl	0 <__aeabi_fadd>
    26aa:	f8d6 12ac 	ldr.w	r1, [r6, #684]	; 0x2ac
    26ae:	4605      	mov	r5, r0
    26b0:	9806      	ldr	r0, [sp, #24]
    26b2:	f7ff fffe 	bl	0 <__aeabi_fmul>
    26b6:	4601      	mov	r1, r0
    26b8:	4628      	mov	r0, r5
    26ba:	f7ff fffe 	bl	0 <__aeabi_fadd>
    26be:	f8d6 12e0 	ldr.w	r1, [r6, #736]	; 0x2e0
    26c2:	4683      	mov	fp, r0
    26c4:	9805      	ldr	r0, [sp, #20]
    26c6:	f7ff fffe 	bl	0 <__aeabi_fmul>
    26ca:	4601      	mov	r1, r0
    26cc:	4658      	mov	r0, fp
    26ce:	f7ff fffe 	bl	0 <__aeabi_fadd>
    26d2:	9b1d      	ldr	r3, [sp, #116]	; 0x74
    26d4:	4995      	ldr	r1, [pc, #596]	; (292c <INSCorrection+0x1438>)
    26d6:	9301      	str	r3, [sp, #4]
    26d8:	f8dd e068 	ldr.w	lr, [sp, #104]	; 0x68
    26dc:	4683      	mov	fp, r0
    26de:	903d      	str	r0, [sp, #244]	; 0xf4
    26e0:	4650      	mov	r0, sl
    26e2:	f851 a00e 	ldr.w	sl, [r1, lr]
    26e6:	4619      	mov	r1, r3
    26e8:	f7ff fffe 	bl	0 <__aeabi_fmul>
    26ec:	4601      	mov	r1, r0
    26ee:	4650      	mov	r0, sl
    26f0:	f7ff fffe 	bl	0 <__aeabi_fadd>
    26f4:	9918      	ldr	r1, [sp, #96]	; 0x60
    26f6:	4682      	mov	sl, r0
    26f8:	4648      	mov	r0, r9
    26fa:	f7ff fffe 	bl	0 <__aeabi_fmul>
    26fe:	4601      	mov	r1, r0
    2700:	4650      	mov	r0, sl
    2702:	f7ff fffe 	bl	0 <__aeabi_fadd>
    2706:	9923      	ldr	r1, [sp, #140]	; 0x8c
    2708:	4605      	mov	r5, r0
    270a:	4640      	mov	r0, r8
    270c:	f7ff fffe 	bl	0 <__aeabi_fmul>
    2710:	4601      	mov	r1, r0
    2712:	4628      	mov	r0, r5
    2714:	f7ff fffe 	bl	0 <__aeabi_fadd>
    2718:	9919      	ldr	r1, [sp, #100]	; 0x64
    271a:	4680      	mov	r8, r0
    271c:	4638      	mov	r0, r7
    271e:	f7ff fffe 	bl	0 <__aeabi_fmul>
    2722:	4601      	mov	r1, r0
    2724:	4640      	mov	r0, r8
    2726:	f7ff fffe 	bl	0 <__aeabi_fadd>
    272a:	f8dd 8090 	ldr.w	r8, [sp, #144]	; 0x90
    272e:	4681      	mov	r9, r0
    2730:	4641      	mov	r1, r8
    2732:	4620      	mov	r0, r4
    2734:	f7ff fffe 	bl	0 <__aeabi_fmul>
    2738:	4601      	mov	r1, r0
    273a:	4648      	mov	r0, r9
    273c:	f7ff fffe 	bl	0 <__aeabi_fadd>
    2740:	f8dd 9094 	ldr.w	r9, [sp, #148]	; 0x94
    2744:	4607      	mov	r7, r0
    2746:	4649      	mov	r1, r9
    2748:	980c      	ldr	r0, [sp, #48]	; 0x30
    274a:	f7ff fffe 	bl	0 <__aeabi_fmul>
    274e:	4601      	mov	r1, r0
    2750:	4638      	mov	r0, r7
    2752:	f7ff fffe 	bl	0 <__aeabi_fadd>
    2756:	9f26      	ldr	r7, [sp, #152]	; 0x98
    2758:	4604      	mov	r4, r0
    275a:	4639      	mov	r1, r7
    275c:	980b      	ldr	r0, [sp, #44]	; 0x2c
    275e:	f7ff fffe 	bl	0 <__aeabi_fmul>
    2762:	4601      	mov	r1, r0
    2764:	4620      	mov	r0, r4
    2766:	f7ff fffe 	bl	0 <__aeabi_fadd>
    276a:	9a02      	ldr	r2, [sp, #8]
    276c:	4682      	mov	sl, r0
    276e:	4611      	mov	r1, r2
    2770:	980a      	ldr	r0, [sp, #40]	; 0x28
    2772:	f7ff fffe 	bl	0 <__aeabi_fmul>
    2776:	4601      	mov	r1, r0
    2778:	4650      	mov	r0, sl
    277a:	f7ff fffe 	bl	0 <__aeabi_fadd>
    277e:	f8dd c00c 	ldr.w	ip, [sp, #12]
    2782:	4605      	mov	r5, r0
    2784:	4661      	mov	r1, ip
    2786:	9809      	ldr	r0, [sp, #36]	; 0x24
    2788:	f7ff fffe 	bl	0 <__aeabi_fmul>
    278c:	4601      	mov	r1, r0
    278e:	4628      	mov	r0, r5
    2790:	f7ff fffe 	bl	0 <__aeabi_fadd>
    2794:	991b      	ldr	r1, [sp, #108]	; 0x6c
    2796:	4604      	mov	r4, r0
    2798:	9808      	ldr	r0, [sp, #32]
    279a:	f7ff fffe 	bl	0 <__aeabi_fmul>
    279e:	4601      	mov	r1, r0
    27a0:	4620      	mov	r0, r4
    27a2:	f7ff fffe 	bl	0 <__aeabi_fadd>
    27a6:	991c      	ldr	r1, [sp, #112]	; 0x70
    27a8:	4682      	mov	sl, r0
    27aa:	9807      	ldr	r0, [sp, #28]
    27ac:	f7ff fffe 	bl	0 <__aeabi_fmul>
    27b0:	4601      	mov	r1, r0
    27b2:	4650      	mov	r0, sl
    27b4:	f7ff fffe 	bl	0 <__aeabi_fadd>
    27b8:	9904      	ldr	r1, [sp, #16]
    27ba:	4605      	mov	r5, r0
    27bc:	9806      	ldr	r0, [sp, #24]
    27be:	f7ff fffe 	bl	0 <__aeabi_fmul>
    27c2:	4601      	mov	r1, r0
    27c4:	4628      	mov	r0, r5
    27c6:	f7ff fffe 	bl	0 <__aeabi_fadd>
    27ca:	4659      	mov	r1, fp
    27cc:	4604      	mov	r4, r0
    27ce:	9805      	ldr	r0, [sp, #20]
    27d0:	f7ff fffe 	bl	0 <__aeabi_fmul>
    27d4:	4601      	mov	r1, r0
    27d6:	4620      	mov	r0, r4
    27d8:	f7ff fffe 	bl	0 <__aeabi_fadd>
    27dc:	4604      	mov	r4, r0
    27de:	4621      	mov	r1, r4
    27e0:	9801      	ldr	r0, [sp, #4]
    27e2:	f7ff fffe 	bl	0 <__aeabi_fdiv>
    27e6:	f8df e148 	ldr.w	lr, [pc, #328]	; 2930 <INSCorrection+0x143c>
    27ea:	900d      	str	r0, [sp, #52]	; 0x34
    27ec:	9b1a      	ldr	r3, [sp, #104]	; 0x68
    27ee:	f8dd a034 	ldr.w	sl, [sp, #52]	; 0x34
    27f2:	4621      	mov	r1, r4
    27f4:	f84e a003 	str.w	sl, [lr, r3]
    27f8:	9818      	ldr	r0, [sp, #96]	; 0x60
    27fa:	f7ff fffe 	bl	0 <__aeabi_fdiv>
    27fe:	900e      	str	r0, [sp, #56]	; 0x38
    2800:	f8dd a054 	ldr.w	sl, [sp, #84]	; 0x54
    2804:	9d0e      	ldr	r5, [sp, #56]	; 0x38
    2806:	4621      	mov	r1, r4
    2808:	9823      	ldr	r0, [sp, #140]	; 0x8c
    280a:	f8ca 5028 	str.w	r5, [sl, #40]	; 0x28
    280e:	f7ff fffe 	bl	0 <__aeabi_fdiv>
    2812:	900f      	str	r0, [sp, #60]	; 0x3c
    2814:	f8dd c03c 	ldr.w	ip, [sp, #60]	; 0x3c
    2818:	4621      	mov	r1, r4
    281a:	f8ca c050 	str.w	ip, [sl, #80]	; 0x50
    281e:	9819      	ldr	r0, [sp, #100]	; 0x64
    2820:	f7ff fffe 	bl	0 <__aeabi_fdiv>
    2824:	9010      	str	r0, [sp, #64]	; 0x40
    2826:	9a10      	ldr	r2, [sp, #64]	; 0x40
    2828:	4621      	mov	r1, r4
    282a:	f8ca 2078 	str.w	r2, [sl, #120]	; 0x78
    282e:	4640      	mov	r0, r8
    2830:	f7ff fffe 	bl	0 <__aeabi_fdiv>
    2834:	9012      	str	r0, [sp, #72]	; 0x48
    2836:	f8dd 8048 	ldr.w	r8, [sp, #72]	; 0x48
    283a:	4621      	mov	r1, r4
    283c:	4648      	mov	r0, r9
    283e:	f8ca 80a0 	str.w	r8, [sl, #160]	; 0xa0
    2842:	f7ff fffe 	bl	0 <__aeabi_fdiv>
    2846:	9013      	str	r0, [sp, #76]	; 0x4c
    2848:	9b13      	ldr	r3, [sp, #76]	; 0x4c
    284a:	4621      	mov	r1, r4
    284c:	f8ca 30c8 	str.w	r3, [sl, #200]	; 0xc8
    2850:	4638      	mov	r0, r7
    2852:	f7ff fffe 	bl	0 <__aeabi_fdiv>
    2856:	9014      	str	r0, [sp, #80]	; 0x50
    2858:	9d14      	ldr	r5, [sp, #80]	; 0x50
    285a:	9802      	ldr	r0, [sp, #8]
    285c:	4621      	mov	r1, r4
    285e:	f8ca 50f0 	str.w	r5, [sl, #240]	; 0xf0
    2862:	f7ff fffe 	bl	0 <__aeabi_fdiv>
    2866:	9016      	str	r0, [sp, #88]	; 0x58
    2868:	f8dd 900c 	ldr.w	r9, [sp, #12]
    286c:	f8dd e058 	ldr.w	lr, [sp, #88]	; 0x58
    2870:	4621      	mov	r1, r4
    2872:	f8ca e118 	str.w	lr, [sl, #280]	; 0x118
    2876:	4648      	mov	r0, r9
    2878:	f7ff fffe 	bl	0 <__aeabi_fdiv>
    287c:	9018      	str	r0, [sp, #96]	; 0x60
    287e:	f8dd c060 	ldr.w	ip, [sp, #96]	; 0x60
    2882:	4621      	mov	r1, r4
    2884:	f8ca c140 	str.w	ip, [sl, #320]	; 0x140
    2888:	981b      	ldr	r0, [sp, #108]	; 0x6c
    288a:	f7ff fffe 	bl	0 <__aeabi_fdiv>
    288e:	9019      	str	r0, [sp, #100]	; 0x64
    2890:	9f19      	ldr	r7, [sp, #100]	; 0x64
    2892:	4621      	mov	r1, r4
    2894:	981c      	ldr	r0, [sp, #112]	; 0x70
    2896:	f8ca 7168 	str.w	r7, [sl, #360]	; 0x168
    289a:	f7ff fffe 	bl	0 <__aeabi_fdiv>
    289e:	901b      	str	r0, [sp, #108]	; 0x6c
    28a0:	9a04      	ldr	r2, [sp, #16]
    28a2:	f8dd 806c 	ldr.w	r8, [sp, #108]	; 0x6c
    28a6:	4621      	mov	r1, r4
    28a8:	4610      	mov	r0, r2
    28aa:	f8ca 8190 	str.w	r8, [sl, #400]	; 0x190
    28ae:	f7ff fffe 	bl	0 <__aeabi_fdiv>
    28b2:	901c      	str	r0, [sp, #112]	; 0x70
    28b4:	f8dd 9070 	ldr.w	r9, [sp, #112]	; 0x70
    28b8:	4621      	mov	r1, r4
    28ba:	4658      	mov	r0, fp
    28bc:	f8ca 91b8 	str.w	r9, [sl, #440]	; 0x1b8
    28c0:	f7ff fffe 	bl	0 <__aeabi_fdiv>
    28c4:	4b1a      	ldr	r3, [pc, #104]	; (2930 <INSCorrection+0x143c>)
    28c6:	9c17      	ldr	r4, [sp, #92]	; 0x5c
    28c8:	9901      	ldr	r1, [sp, #4]
    28ca:	901d      	str	r0, [sp, #116]	; 0x74
    28cc:	f8ca 01e0 	str.w	r0, [sl, #480]	; 0x1e0
    28d0:	eb03 0b84 	add.w	fp, r3, r4, lsl #2
    28d4:	f10d 08c4 	add.w	r8, sp, #196	; 0xc4
    28d8:	2700      	movs	r7, #0
    28da:	b2fc      	uxtb	r4, r7
    28dc:	eb07 0a47 	add.w	sl, r7, r7, lsl #1
    28e0:	f014 0f01 	tst.w	r4, #1
    28e4:	f8db 9000 	ldr.w	r9, [fp]
    28e8:	eb07 0a8a 	add.w	sl, r7, sl, lsl #2
    28ec:	d045      	beq.n	297a <INSCorrection+0x1486>
    28ee:	eb0a 0e04 	add.w	lr, sl, r4
    28f2:	4648      	mov	r0, r9
    28f4:	eb06 058e 	add.w	r5, r6, lr, lsl #2
    28f8:	f7ff fffe 	bl	0 <__aeabi_fmul>
    28fc:	4601      	mov	r1, r0
    28fe:	6c28      	ldr	r0, [r5, #64]	; 0x40
    2900:	f7ff fffe 	bl	0 <__aeabi_fsub>
    2904:	eb04 0144 	add.w	r1, r4, r4, lsl #1
    2908:	eb04 0c81 	add.w	ip, r4, r1, lsl #2
    290c:	1c62      	adds	r2, r4, #1
    290e:	eb0c 0307 	add.w	r3, ip, r7
    2912:	b2d4      	uxtb	r4, r2
    2914:	eb06 0183 	add.w	r1, r6, r3, lsl #2
    2918:	2c0c      	cmp	r4, #12
    291a:	6408      	str	r0, [r1, #64]	; 0x40
    291c:	6428      	str	r0, [r5, #64]	; 0x40
    291e:	d844      	bhi.n	29aa <INSCorrection+0x14b6>
    2920:	ad52      	add	r5, sp, #328	; 0x148
    2922:	eb05 0084 	add.w	r0, r5, r4, lsl #2
    2926:	f850 1c84 	ldr.w	r1, [r0, #-132]
    292a:	e026      	b.n	50 <StateEq.clone.1+0x50>
    292c:	00000308 	andeq	r0, r0, r8, lsl #6
    2930:	00000538 	andeq	r0, r0, r8, lsr r5
    2934:	f50d 7ca4 	add.w	ip, sp, #328	; 0x148
    2938:	eb0c 0084 	add.w	r0, ip, r4, lsl #2
    293c:	f850 1c84 	ldr.w	r1, [r0, #-132]
    2940:	4648      	mov	r0, r9
    2942:	f7ff fffe 	bl	0 <__aeabi_fmul>
    2946:	eb0a 0504 	add.w	r5, sl, r4
    294a:	eb06 0585 	add.w	r5, r6, r5, lsl #2
    294e:	4601      	mov	r1, r0
    2950:	6c28      	ldr	r0, [r5, #64]	; 0x40
    2952:	f7ff fffe 	bl	0 <__aeabi_fsub>
    2956:	eb04 0144 	add.w	r1, r4, r4, lsl #1
    295a:	1c62      	adds	r2, r4, #1
    295c:	eb04 0381 	add.w	r3, r4, r1, lsl #2
    2960:	f50d 7ea4 	add.w	lr, sp, #328	; 0x148
    2964:	b2d4      	uxtb	r4, r2
    2966:	eb03 0c07 	add.w	ip, r3, r7
    296a:	eb0e 0184 	add.w	r1, lr, r4, lsl #2
    296e:	eb06 038c 	add.w	r3, r6, ip, lsl #2
    2972:	f851 1c84 	ldr.w	r1, [r1, #-132]
    2976:	6418      	str	r0, [r3, #64]	; 0x40
    2978:	6428      	str	r0, [r5, #64]	; 0x40
    297a:	eb0a 0e04 	add.w	lr, sl, r4
    297e:	4648      	mov	r0, r9
    2980:	eb06 058e 	add.w	r5, r6, lr, lsl #2
    2984:	f7ff fffe 	bl	0 <__aeabi_fmul>
    2988:	4601      	mov	r1, r0
    298a:	6c28      	ldr	r0, [r5, #64]	; 0x40
    298c:	f7ff fffe 	bl	0 <__aeabi_fsub>
    2990:	eb04 0c44 	add.w	ip, r4, r4, lsl #1
    2994:	eb04 018c 	add.w	r1, r4, ip, lsl #2
    2998:	3401      	adds	r4, #1
    299a:	19ca      	adds	r2, r1, r7
    299c:	b2e4      	uxtb	r4, r4
    299e:	eb06 0382 	add.w	r3, r6, r2, lsl #2
    29a2:	2c0c      	cmp	r4, #12
    29a4:	6418      	str	r0, [r3, #64]	; 0x40
    29a6:	6428      	str	r0, [r5, #64]	; 0x40
    29a8:	d9c4      	bls.n	2934 <INSCorrection+0x1440>
    29aa:	3701      	adds	r7, #1
    29ac:	2f0d      	cmp	r7, #13
    29ae:	f10b 0b28 	add.w	fp, fp, #40	; 0x28
    29b2:	d002      	beq.n	29ba <INSCorrection+0x14c6>
    29b4:	f858 1f04 	ldr.w	r1, [r8, #4]!
    29b8:	e78f      	b.n	28da <INSCorrection+0x13e6>
    29ba:	9f1a      	ldr	r7, [sp, #104]	; 0x68
    29bc:	a848      	add	r0, sp, #288	; 0x120
    29be:	f10d 09f8 	add.w	r9, sp, #248	; 0xf8
    29c2:	f859 1007 	ldr.w	r1, [r9, r7]
    29c6:	59c0      	ldr	r0, [r0, r7]
    29c8:	f7ff fffe 	bl	0 <__aeabi_fsub>
    29cc:	990d      	ldr	r1, [sp, #52]	; 0x34
    29ce:	4680      	mov	r8, r0
    29d0:	f7ff fffe 	bl	0 <__aeabi_fmul>
    29d4:	4601      	mov	r1, r0
    29d6:	9822      	ldr	r0, [sp, #136]	; 0x88
    29d8:	f7ff fffe 	bl	0 <__aeabi_fadd>
    29dc:	990e      	ldr	r1, [sp, #56]	; 0x38
    29de:	9022      	str	r0, [sp, #136]	; 0x88
    29e0:	4640      	mov	r0, r8
    29e2:	f7ff fffe 	bl	0 <__aeabi_fmul>
    29e6:	4601      	mov	r1, r0
    29e8:	9821      	ldr	r0, [sp, #132]	; 0x84
    29ea:	f7ff fffe 	bl	0 <__aeabi_fadd>
    29ee:	990f      	ldr	r1, [sp, #60]	; 0x3c
    29f0:	9021      	str	r0, [sp, #132]	; 0x84
    29f2:	4640      	mov	r0, r8
    29f4:	f7ff fffe 	bl	0 <__aeabi_fmul>
    29f8:	4601      	mov	r1, r0
    29fa:	982e      	ldr	r0, [sp, #184]	; 0xb8
    29fc:	f7ff fffe 	bl	0 <__aeabi_fadd>
    2a00:	9910      	ldr	r1, [sp, #64]	; 0x40
    2a02:	902e      	str	r0, [sp, #184]	; 0xb8
    2a04:	4640      	mov	r0, r8
    2a06:	f7ff fffe 	bl	0 <__aeabi_fmul>
    2a0a:	4601      	mov	r1, r0
    2a0c:	9820      	ldr	r0, [sp, #128]	; 0x80
    2a0e:	f7ff fffe 	bl	0 <__aeabi_fadd>
    2a12:	9912      	ldr	r1, [sp, #72]	; 0x48
    2a14:	9020      	str	r0, [sp, #128]	; 0x80
    2a16:	4640      	mov	r0, r8
    2a18:	f7ff fffe 	bl	0 <__aeabi_fmul>
    2a1c:	4601      	mov	r1, r0
    2a1e:	981f      	ldr	r0, [sp, #124]	; 0x7c
    2a20:	f7ff fffe 	bl	0 <__aeabi_fadd>
    2a24:	9913      	ldr	r1, [sp, #76]	; 0x4c
    2a26:	901f      	str	r0, [sp, #124]	; 0x7c
    2a28:	4640      	mov	r0, r8
    2a2a:	f7ff fffe 	bl	0 <__aeabi_fmul>
    2a2e:	4601      	mov	r1, r0
    2a30:	981e      	ldr	r0, [sp, #120]	; 0x78
    2a32:	f7ff fffe 	bl	0 <__aeabi_fadd>
    2a36:	9914      	ldr	r1, [sp, #80]	; 0x50
    2a38:	901e      	str	r0, [sp, #120]	; 0x78
    2a3a:	4640      	mov	r0, r8
    2a3c:	f7ff fffe 	bl	0 <__aeabi_fmul>
    2a40:	4601      	mov	r1, r0
    2a42:	982a      	ldr	r0, [sp, #168]	; 0xa8
    2a44:	f7ff fffe 	bl	0 <__aeabi_fadd>
    2a48:	9916      	ldr	r1, [sp, #88]	; 0x58
    2a4a:	902a      	str	r0, [sp, #168]	; 0xa8
    2a4c:	4640      	mov	r0, r8
    2a4e:	f7ff fffe 	bl	0 <__aeabi_fmul>
    2a52:	4601      	mov	r1, r0
    2a54:	9827      	ldr	r0, [sp, #156]	; 0x9c
    2a56:	f7ff fffe 	bl	0 <__aeabi_fadd>
    2a5a:	9027      	str	r0, [sp, #156]	; 0x9c
    2a5c:	9918      	ldr	r1, [sp, #96]	; 0x60
    2a5e:	4640      	mov	r0, r8
    2a60:	f7ff fffe 	bl	0 <__aeabi_fmul>
    2a64:	4601      	mov	r1, r0
    2a66:	9828      	ldr	r0, [sp, #160]	; 0xa0
    2a68:	f7ff fffe 	bl	0 <__aeabi_fadd>
    2a6c:	9919      	ldr	r1, [sp, #100]	; 0x64
    2a6e:	9028      	str	r0, [sp, #160]	; 0xa0
    2a70:	4640      	mov	r0, r8
    2a72:	f7ff fffe 	bl	0 <__aeabi_fmul>
    2a76:	4601      	mov	r1, r0
    2a78:	9829      	ldr	r0, [sp, #164]	; 0xa4
    2a7a:	f7ff fffe 	bl	0 <__aeabi_fadd>
    2a7e:	991b      	ldr	r1, [sp, #108]	; 0x6c
    2a80:	9029      	str	r0, [sp, #164]	; 0xa4
    2a82:	4640      	mov	r0, r8
    2a84:	f7ff fffe 	bl	0 <__aeabi_fmul>
    2a88:	4601      	mov	r1, r0
    2a8a:	982b      	ldr	r0, [sp, #172]	; 0xac
    2a8c:	f7ff fffe 	bl	0 <__aeabi_fadd>
    2a90:	991c      	ldr	r1, [sp, #112]	; 0x70
    2a92:	902b      	str	r0, [sp, #172]	; 0xac
    2a94:	4640      	mov	r0, r8
    2a96:	f7ff fffe 	bl	0 <__aeabi_fmul>
    2a9a:	4601      	mov	r1, r0
    2a9c:	982c      	ldr	r0, [sp, #176]	; 0xb0
    2a9e:	f7ff fffe 	bl	0 <__aeabi_fadd>
    2aa2:	991d      	ldr	r1, [sp, #116]	; 0x74
    2aa4:	902c      	str	r0, [sp, #176]	; 0xb0
    2aa6:	4640      	mov	r0, r8
    2aa8:	f7ff fffe 	bl	0 <__aeabi_fmul>
    2aac:	4601      	mov	r1, r0
    2aae:	982d      	ldr	r0, [sp, #180]	; 0xb4
    2ab0:	f7ff fffe 	bl	0 <__aeabi_fadd>
    2ab4:	9a17      	ldr	r2, [sp, #92]	; 0x5c
    2ab6:	902d      	str	r0, [sp, #180]	; 0xb4
    2ab8:	9f1a      	ldr	r7, [sp, #104]	; 0x68
    2aba:	9c11      	ldr	r4, [sp, #68]	; 0x44
    2abc:	9b15      	ldr	r3, [sp, #84]	; 0x54
    2abe:	3201      	adds	r2, #1
    2ac0:	1d39      	adds	r1, r7, #4
    2ac2:	3434      	adds	r4, #52	; 0x34
    2ac4:	1d1d      	adds	r5, r3, #4
    2ac6:	2a0a      	cmp	r2, #10
    2ac8:	9217      	str	r2, [sp, #92]	; 0x5c
    2aca:	911a      	str	r1, [sp, #104]	; 0x68
    2acc:	9411      	str	r4, [sp, #68]	; 0x44
    2ace:	9515      	str	r5, [sp, #84]	; 0x54
    2ad0:	f47e af3b 	bne.w	194a <INSCorrection+0x456>
    2ad4:	f8dd e088 	ldr.w	lr, [sp, #136]	; 0x88
    2ad8:	f8dd a0ac 	ldr.w	sl, [sp, #172]	; 0xac
    2adc:	f8dd c078 	ldr.w	ip, [sp, #120]	; 0x78
    2ae0:	9a27      	ldr	r2, [sp, #156]	; 0x9c
    2ae2:	9b28      	ldr	r3, [sp, #160]	; 0xa0
    2ae4:	982a      	ldr	r0, [sp, #168]	; 0xa8
    2ae6:	9c21      	ldr	r4, [sp, #132]	; 0x84
    2ae8:	9d2e      	ldr	r5, [sp, #184]	; 0xb8
    2aea:	f8dd 8080 	ldr.w	r8, [sp, #128]	; 0x80
    2aee:	f8dd 907c 	ldr.w	r9, [sp, #124]	; 0x7c
    2af2:	9f29      	ldr	r7, [sp, #164]	; 0xa4
    2af4:	f8c6 e000 	str.w	lr, [r6]
    2af8:	f8c6 a028 	str.w	sl, [r6, #40]	; 0x28
    2afc:	f8dd e0b0 	ldr.w	lr, [sp, #176]	; 0xb0
    2b00:	f8dd a0b4 	ldr.w	sl, [sp, #180]	; 0xb4
    2b04:	f8c6 c014 	str.w	ip, [r6, #20]
    2b08:	61f2      	str	r2, [r6, #28]
    2b0a:	6233      	str	r3, [r6, #32]
    2b0c:	f8c6 e02c 	str.w	lr, [r6, #44]	; 0x2c
    2b10:	4601      	mov	r1, r0
    2b12:	6074      	str	r4, [r6, #4]
    2b14:	60b5      	str	r5, [r6, #8]
    2b16:	f8c6 800c 	str.w	r8, [r6, #12]
    2b1a:	f8c6 9010 	str.w	r9, [r6, #16]
    2b1e:	6277      	str	r7, [r6, #36]	; 0x24
    2b20:	61b0      	str	r0, [r6, #24]
    2b22:	f8c6 a030 	str.w	sl, [r6, #48]	; 0x30
    2b26:	f7ff fffe 	bl	0 <__aeabi_fmul>
    2b2a:	4604      	mov	r4, r0
    2b2c:	9827      	ldr	r0, [sp, #156]	; 0x9c
    2b2e:	4601      	mov	r1, r0
    2b30:	f7ff fffe 	bl	0 <__aeabi_fmul>
    2b34:	4601      	mov	r1, r0
    2b36:	4620      	mov	r0, r4
    2b38:	f7ff fffe 	bl	0 <__aeabi_fadd>
    2b3c:	4605      	mov	r5, r0
    2b3e:	9828      	ldr	r0, [sp, #160]	; 0xa0
    2b40:	4601      	mov	r1, r0
    2b42:	f7ff fffe 	bl	0 <__aeabi_fmul>
    2b46:	4601      	mov	r1, r0
    2b48:	4628      	mov	r0, r5
    2b4a:	f7ff fffe 	bl	0 <__aeabi_fadd>
    2b4e:	4680      	mov	r8, r0
    2b50:	9829      	ldr	r0, [sp, #164]	; 0xa4
    2b52:	4601      	mov	r1, r0
    2b54:	f7ff fffe 	bl	0 <__aeabi_fmul>
    2b58:	4601      	mov	r1, r0
    2b5a:	4640      	mov	r0, r8
    2b5c:	f7ff fffe 	bl	0 <__aeabi_fadd>
    2b60:	f7ff fffe 	bl	0 <sqrtf>
    2b64:	4601      	mov	r1, r0
    2b66:	f04f 507e 	mov.w	r0, #1065353216	; 0x3f800000
    2b6a:	f7ff fffe 	bl	0 <__aeabi_fdiv>
    2b6e:	69b1      	ldr	r1, [r6, #24]
    2b70:	4681      	mov	r9, r0
    2b72:	f7ff fffe 	bl	0 <__aeabi_fmul>
    2b76:	4680      	mov	r8, r0
    2b78:	69f1      	ldr	r1, [r6, #28]
    2b7a:	4648      	mov	r0, r9
    2b7c:	f8c6 8018 	str.w	r8, [r6, #24]
    2b80:	f7ff fffe 	bl	0 <__aeabi_fmul>
    2b84:	4607      	mov	r7, r0
    2b86:	6a31      	ldr	r1, [r6, #32]
    2b88:	4648      	mov	r0, r9
    2b8a:	61f7      	str	r7, [r6, #28]
    2b8c:	f7ff fffe 	bl	0 <__aeabi_fmul>
    2b90:	4605      	mov	r5, r0
    2b92:	6a71      	ldr	r1, [r6, #36]	; 0x24
    2b94:	4648      	mov	r0, r9
    2b96:	6235      	str	r5, [r6, #32]
    2b98:	f7ff fffe 	bl	0 <__aeabi_fmul>
    2b9c:	f8d6 9000 	ldr.w	r9, [r6]
    2ba0:	f8d6 c004 	ldr.w	ip, [r6, #4]
    2ba4:	68b4      	ldr	r4, [r6, #8]
    2ba6:	68f1      	ldr	r1, [r6, #12]
    2ba8:	6932      	ldr	r2, [r6, #16]
    2baa:	6973      	ldr	r3, [r6, #20]
    2bac:	6270      	str	r0, [r6, #36]	; 0x24
    2bae:	f8c6 9740 	str.w	r9, [r6, #1856]	; 0x740
    2bb2:	f8c6 c744 	str.w	ip, [r6, #1860]	; 0x744
    2bb6:	f8c6 4748 	str.w	r4, [r6, #1864]	; 0x748
    2bba:	f8c6 174c 	str.w	r1, [r6, #1868]	; 0x74c
    2bbe:	f8c6 2750 	str.w	r2, [r6, #1872]	; 0x750
    2bc2:	f8c6 3754 	str.w	r3, [r6, #1876]	; 0x754
    2bc6:	f8c6 8758 	str.w	r8, [r6, #1880]	; 0x758
    2bca:	f8c6 775c 	str.w	r7, [r6, #1884]	; 0x75c
    2bce:	f8c6 5760 	str.w	r5, [r6, #1888]	; 0x760
    2bd2:	f8c6 0764 	str.w	r0, [r6, #1892]	; 0x764
    2bd6:	b053      	add	sp, #332	; 0x14c
    2bd8:	e8bd 8ff0 	ldmia.w	sp!, {r4, r5, r6, r7, r8, r9, sl, fp, pc}

00002bdc <VelBaroCorrection>:
    2bdc:	b510      	push	{r4, lr}
    2bde:	4602      	mov	r2, r0
    2be0:	4805      	ldr	r0, [pc, #20]	; (2bf8 <VelBaroCorrection+0x1c>)
    2be2:	b082      	sub	sp, #8
    2be4:	460b      	mov	r3, r1
    2be6:	f44f 740e 	mov.w	r4, #568	; 0x238
    2bea:	4601      	mov	r1, r0
    2bec:	9400      	str	r4, [sp, #0]
    2bee:	f7ff fffe 	bl	14f4 <INSCorrection>
    2bf2:	b002      	add	sp, #8
    2bf4:	bd10      	pop	{r4, pc}
    2bf6:	bf00      	nop
    2bf8:	00000774 	andeq	r0, r0, r4, ror r7

00002bfc <GpsMagCorrection>:
    2bfc:	b510      	push	{r4, lr}
    2bfe:	4b05      	ldr	r3, [pc, #20]	; (2c14 <GpsMagCorrection+0x18>)
    2c00:	b082      	sub	sp, #8
    2c02:	f8d3 3774 	ldr.w	r3, [r3, #1908]	; 0x774
    2c06:	f240 14df 	movw	r4, #479	; 0x1df
    2c0a:	9400      	str	r4, [sp, #0]
    2c0c:	f7ff fffe 	bl	14f4 <INSCorrection>
    2c10:	b002      	add	sp, #8
    2c12:	bd10      	pop	{r4, pc}
    2c14:	00000000 	andeq	r0, r0, r0

00002c18 <FullCorrection>:
    2c18:	b510      	push	{r4, lr}
    2c1a:	f240 34ff 	movw	r4, #1023	; 0x3ff
    2c1e:	b082      	sub	sp, #8
    2c20:	9400      	str	r4, [sp, #0]
    2c22:	f7ff fffe 	bl	14f4 <INSCorrection>
    2c26:	b002      	add	sp, #8
    2c28:	bd10      	pop	{r4, pc}
    2c2a:	bf00      	nop

00002c2c <GpsBaroCorrection>:
    2c2c:	b530      	push	{r4, r5, lr}
    2c2e:	4605      	mov	r5, r0
    2c30:	460c      	mov	r4, r1
    2c32:	b083      	sub	sp, #12
    2c34:	4613      	mov	r3, r2
    2c36:	4805      	ldr	r0, [pc, #20]	; (2c4c <GpsBaroCorrection+0x20>)
    2c38:	4622      	mov	r2, r4
    2c3a:	4629      	mov	r1, r5
    2c3c:	f44f 740e 	mov.w	r4, #568	; 0x238
    2c40:	9400      	str	r4, [sp, #0]
    2c42:	f7ff fffe 	bl	14f4 <INSCorrection>
    2c46:	b003      	add	sp, #12
    2c48:	bd30      	pop	{r4, r5, pc}
    2c4a:	bf00      	nop
    2c4c:	00000774 	andeq	r0, r0, r4, ror r7

00002c50 <MagVelBaroCorrection>:
    2c50:	b510      	push	{r4, lr}
    2c52:	460c      	mov	r4, r1
    2c54:	b082      	sub	sp, #8
    2c56:	4613      	mov	r3, r2
    2c58:	4904      	ldr	r1, [pc, #16]	; (2c6c <MagVelBaroCorrection+0x1c>)
    2c5a:	4622      	mov	r2, r4
    2c5c:	f44f 747e 	mov.w	r4, #1016	; 0x3f8
    2c60:	9400      	str	r4, [sp, #0]
    2c62:	f7ff fffe 	bl	14f4 <INSCorrection>
    2c66:	b002      	add	sp, #8
    2c68:	bd10      	pop	{r4, pc}
    2c6a:	bf00      	nop
    2c6c:	00000774 	andeq	r0, r0, r4, ror r7

00002c70 <MagCorrection>:
    2c70:	b510      	push	{r4, lr}
    2c72:	4b07      	ldr	r3, [pc, #28]	; (2c90 <MagCorrection+0x20>)
    2c74:	b082      	sub	sp, #8
    2c76:	f503 61ee 	add.w	r1, r3, #1904	; 0x770
    2c7a:	3104      	adds	r1, #4
    2c7c:	f8d3 3774 	ldr.w	r3, [r3, #1908]	; 0x774
    2c80:	f44f 74e0 	mov.w	r4, #448	; 0x1c0
    2c84:	460a      	mov	r2, r1
    2c86:	9400      	str	r4, [sp, #0]
    2c88:	f7ff fffe 	bl	14f4 <INSCorrection>
    2c8c:	b002      	add	sp, #8
    2c8e:	bd10      	pop	{r4, pc}
    2c90:	00000000 	andeq	r0, r0, r0

00002c94 <CovariancePrediction>:
    2c94:	e92d 4ff0 	stmdb	sp!, {r4, r5, r6, r7, r8, r9, sl, fp, lr}
    2c98:	f5ad 6d9c 	sub.w	sp, sp, #1248	; 0x4e0
    2c9c:	b081      	sub	sp, #4
    2c9e:	9161      	str	r1, [sp, #388]	; 0x184
    2ca0:	4605      	mov	r5, r0
    2ca2:	4619      	mov	r1, r3
    2ca4:	4618      	mov	r0, r3
    2ca6:	923c      	str	r2, [sp, #240]	; 0xf0
    2ca8:	461c      	mov	r4, r3
    2caa:	f7ff fffe 	bl	0 <__aeabi_fmul>
    2cae:	f8dd 9508 	ldr.w	r9, [sp, #1288]	; 0x508
    2cb2:	9039      	str	r0, [sp, #228]	; 0xe4
    2cb4:	f50d 7a0f 	add.w	sl, sp, #572	; 0x23c
    2cb8:	464a      	mov	r2, r9
    2cba:	2000      	movs	r0, #0
    2cbc:	b2c3      	uxtb	r3, r0
    2cbe:	eb00 0140 	add.w	r1, r0, r0, lsl #1
    2cc2:	1c5e      	adds	r6, r3, #1
    2cc4:	eb00 0181 	add.w	r1, r0, r1, lsl #2
    2cc8:	f852 e023 	ldr.w	lr, [r2, r3, lsl #2]
    2ccc:	f1c3 0c0c 	rsb	ip, r3, #12
    2cd0:	18cf      	adds	r7, r1, r3
    2cd2:	b2f3      	uxtb	r3, r6
    2cd4:	2b0c      	cmp	r3, #12
    2cd6:	f84a e027 	str.w	lr, [sl, r7, lsl #2]
    2cda:	f00c 0607 	and.w	r6, ip, #7
    2cde:	f200 8089 	bhi.w	2df4 <CovariancePrediction+0x160>
    2ce2:	b276      	sxtb	r6, r6
    2ce4:	2e00      	cmp	r6, #0
    2ce6:	d044      	beq.n	2d72 <CovariancePrediction+0xde>
    2ce8:	2e01      	cmp	r6, #1
    2cea:	d037      	beq.n	2d5c <CovariancePrediction+0xc8>
    2cec:	2e02      	cmp	r6, #2
    2cee:	d02d      	beq.n	2d4c <CovariancePrediction+0xb8>
    2cf0:	2e03      	cmp	r6, #3
    2cf2:	d023      	beq.n	2d3c <CovariancePrediction+0xa8>
    2cf4:	2e04      	cmp	r6, #4
    2cf6:	d01a      	beq.n	2d2e <CovariancePrediction+0x9a>
    2cf8:	2e05      	cmp	r6, #5
    2cfa:	d010      	beq.n	2d1e <CovariancePrediction+0x8a>
    2cfc:	2e06      	cmp	r6, #6
    2cfe:	d006      	beq.n	2d0e <CovariancePrediction+0x7a>
    2d00:	f852 b023 	ldr.w	fp, [r2, r3, lsl #2]
    2d04:	18ce      	adds	r6, r1, r3
    2d06:	3301      	adds	r3, #1
    2d08:	f84a b026 	str.w	fp, [sl, r6, lsl #2]
    2d0c:	b2db      	uxtb	r3, r3
    2d0e:	f852 c023 	ldr.w	ip, [r2, r3, lsl #2]
    2d12:	eb01 0803 	add.w	r8, r1, r3
    2d16:	3301      	adds	r3, #1
    2d18:	f84a c028 	str.w	ip, [sl, r8, lsl #2]
    2d1c:	b2db      	uxtb	r3, r3
    2d1e:	f852 7023 	ldr.w	r7, [r2, r3, lsl #2]
    2d22:	eb01 0e03 	add.w	lr, r1, r3
    2d26:	3301      	adds	r3, #1
    2d28:	f84a 702e 	str.w	r7, [sl, lr, lsl #2]
    2d2c:	b2db      	uxtb	r3, r3
    2d2e:	f852 b023 	ldr.w	fp, [r2, r3, lsl #2]
    2d32:	18ce      	adds	r6, r1, r3
    2d34:	3301      	adds	r3, #1
    2d36:	f84a b026 	str.w	fp, [sl, r6, lsl #2]
    2d3a:	b2db      	uxtb	r3, r3
    2d3c:	f852 c023 	ldr.w	ip, [r2, r3, lsl #2]
    2d40:	eb01 0803 	add.w	r8, r1, r3
    2d44:	3301      	adds	r3, #1
    2d46:	f84a c028 	str.w	ip, [sl, r8, lsl #2]
    2d4a:	b2db      	uxtb	r3, r3
    2d4c:	f852 7023 	ldr.w	r7, [r2, r3, lsl #2]
    2d50:	eb01 0e03 	add.w	lr, r1, r3
    2d54:	3301      	adds	r3, #1
    2d56:	f84a 702e 	str.w	r7, [sl, lr, lsl #2]
    2d5a:	b2db      	uxtb	r3, r3
    2d5c:	f103 0801 	add.w	r8, r3, #1
    2d60:	f852 b023 	ldr.w	fp, [r2, r3, lsl #2]
    2d64:	18ce      	adds	r6, r1, r3
    2d66:	fa5f f388 	uxtb.w	r3, r8
    2d6a:	2b0c      	cmp	r3, #12
    2d6c:	f84a b026 	str.w	fp, [sl, r6, lsl #2]
    2d70:	d840      	bhi.n	2df4 <CovariancePrediction+0x160>
    2d72:	f852 b023 	ldr.w	fp, [r2, r3, lsl #2]
    2d76:	eb01 0803 	add.w	r8, r1, r3
    2d7a:	3301      	adds	r3, #1
    2d7c:	f84a b028 	str.w	fp, [sl, r8, lsl #2]
    2d80:	b2de      	uxtb	r6, r3
    2d82:	f852 e026 	ldr.w	lr, [r2, r6, lsl #2]
    2d86:	1c73      	adds	r3, r6, #1
    2d88:	eb01 0c06 	add.w	ip, r1, r6
    2d8c:	f84a e02c 	str.w	lr, [sl, ip, lsl #2]
    2d90:	b2df      	uxtb	r7, r3
    2d92:	f852 b027 	ldr.w	fp, [r2, r7, lsl #2]
    2d96:	1c7e      	adds	r6, r7, #1
    2d98:	eb01 0807 	add.w	r8, r1, r7
    2d9c:	f84a b028 	str.w	fp, [sl, r8, lsl #2]
    2da0:	b2f3      	uxtb	r3, r6
    2da2:	f852 e023 	ldr.w	lr, [r2, r3, lsl #2]
    2da6:	1c5e      	adds	r6, r3, #1
    2da8:	eb01 0c03 	add.w	ip, r1, r3
    2dac:	f84a e02c 	str.w	lr, [sl, ip, lsl #2]
    2db0:	b2f7      	uxtb	r7, r6
    2db2:	f852 b027 	ldr.w	fp, [r2, r7, lsl #2]
    2db6:	1c7e      	adds	r6, r7, #1
    2db8:	eb01 0807 	add.w	r8, r1, r7
    2dbc:	f84a b028 	str.w	fp, [sl, r8, lsl #2]
    2dc0:	b2f3      	uxtb	r3, r6
    2dc2:	f852 e023 	ldr.w	lr, [r2, r3, lsl #2]
    2dc6:	1c5e      	adds	r6, r3, #1
    2dc8:	eb01 0c03 	add.w	ip, r1, r3
    2dcc:	f84a e02c 	str.w	lr, [sl, ip, lsl #2]
    2dd0:	b2f7      	uxtb	r7, r6
    2dd2:	f852 b027 	ldr.w	fp, [r2, r7, lsl #2]
    2dd6:	1c7e      	adds	r6, r7, #1
    2dd8:	b2f6      	uxtb	r6, r6
    2dda:	eb01 0807 	add.w	r8, r1, r7
    2dde:	1c73      	adds	r3, r6, #1
    2de0:	f84a b028 	str.w	fp, [sl, r8, lsl #2]
    2de4:	f852 7026 	ldr.w	r7, [r2, r6, lsl #2]
    2de8:	b2db      	uxtb	r3, r3
    2dea:	198e      	adds	r6, r1, r6
    2dec:	2b0c      	cmp	r3, #12
    2dee:	f84a 7026 	str.w	r7, [sl, r6, lsl #2]
    2df2:	d9be      	bls.n	2d72 <CovariancePrediction+0xde>
    2df4:	3001      	adds	r0, #1
    2df6:	3234      	adds	r2, #52	; 0x34
    2df8:	280d      	cmp	r0, #13
    2dfa:	f47f af5f 	bne.w	2cbc <CovariancePrediction+0x28>
    2dfe:	f8da 00a8 	ldr.w	r0, [sl, #168]	; 0xa8
    2e02:	9939      	ldr	r1, [sp, #228]	; 0xe4
    2e04:	9063      	str	r0, [sp, #396]	; 0x18c
    2e06:	f7ff fffe 	bl	0 <__aeabi_fmul>
    2e0a:	f8da 600c 	ldr.w	r6, [sl, #12]
    2e0e:	4607      	mov	r7, r0
    2e10:	4631      	mov	r1, r6
    2e12:	4630      	mov	r0, r6
    2e14:	f7ff fffe 	bl	0 <__aeabi_fadd>
    2e18:	4601      	mov	r1, r0
    2e1a:	4620      	mov	r0, r4
    2e1c:	f7ff fffe 	bl	0 <__aeabi_fmul>
    2e20:	4601      	mov	r1, r0
    2e22:	4638      	mov	r0, r7
    2e24:	f7ff fffe 	bl	0 <__aeabi_fadd>
    2e28:	f8da 1000 	ldr.w	r1, [sl]
    2e2c:	f7ff fffe 	bl	0 <__aeabi_fadd>
    2e30:	f8da c0ac 	ldr.w	ip, [sl, #172]	; 0xac
    2e34:	4649      	mov	r1, r9
    2e36:	f8cd c188 	str.w	ip, [sp, #392]	; 0x188
    2e3a:	f841 0b34 	str.w	r0, [r1], #52
    2e3e:	f8da 0010 	ldr.w	r0, [sl, #16]
    2e42:	f8da e040 	ldr.w	lr, [sl, #64]	; 0x40
    2e46:	913e      	str	r1, [sp, #248]	; 0xf8
    2e48:	9040      	str	r0, [sp, #256]	; 0x100
    2e4a:	9939      	ldr	r1, [sp, #228]	; 0xe4
    2e4c:	4660      	mov	r0, ip
    2e4e:	f8cd e0d4 	str.w	lr, [sp, #212]	; 0xd4
    2e52:	f7ff fffe 	bl	0 <__aeabi_fmul>
    2e56:	9935      	ldr	r1, [sp, #212]	; 0xd4
    2e58:	4680      	mov	r8, r0
    2e5a:	9840      	ldr	r0, [sp, #256]	; 0x100
    2e5c:	f7ff fffe 	bl	0 <__aeabi_fadd>
    2e60:	4601      	mov	r1, r0
    2e62:	4620      	mov	r0, r4
    2e64:	f7ff fffe 	bl	0 <__aeabi_fmul>
    2e68:	4601      	mov	r1, r0
    2e6a:	4640      	mov	r0, r8
    2e6c:	f7ff fffe 	bl	0 <__aeabi_fadd>
    2e70:	f8da 1004 	ldr.w	r1, [sl, #4]
    2e74:	f7ff fffe 	bl	0 <__aeabi_fadd>
    2e78:	f8da 3014 	ldr.w	r3, [sl, #20]
    2e7c:	f8da 2074 	ldr.w	r2, [sl, #116]	; 0x74
    2e80:	f8da b0b0 	ldr.w	fp, [sl, #176]	; 0xb0
    2e84:	9337      	str	r3, [sp, #220]	; 0xdc
    2e86:	924e      	str	r2, [sp, #312]	; 0x138
    2e88:	f8cd b1a0 	str.w	fp, [sp, #416]	; 0x1a0
    2e8c:	9939      	ldr	r1, [sp, #228]	; 0xe4
    2e8e:	f8c9 0034 	str.w	r0, [r9, #52]	; 0x34
    2e92:	f8c9 0004 	str.w	r0, [r9, #4]
    2e96:	4658      	mov	r0, fp
    2e98:	f7ff fffe 	bl	0 <__aeabi_fmul>
    2e9c:	994e      	ldr	r1, [sp, #312]	; 0x138
    2e9e:	4607      	mov	r7, r0
    2ea0:	9837      	ldr	r0, [sp, #220]	; 0xdc
    2ea2:	f7ff fffe 	bl	0 <__aeabi_fadd>
    2ea6:	4601      	mov	r1, r0
    2ea8:	4620      	mov	r0, r4
    2eaa:	f7ff fffe 	bl	0 <__aeabi_fmul>
    2eae:	4601      	mov	r1, r0
    2eb0:	4638      	mov	r0, r7
    2eb2:	f7ff fffe 	bl	0 <__aeabi_fadd>
    2eb6:	f8da 1008 	ldr.w	r1, [sl, #8]
    2eba:	f7ff fffe 	bl	0 <__aeabi_fadd>
    2ebe:	f105 089c 	add.w	r8, r5, #156	; 0x9c
    2ec2:	f8cd 80cc 	str.w	r8, [sp, #204]	; 0xcc
    2ec6:	f8c9 0068 	str.w	r0, [r9, #104]	; 0x68
    2eca:	f8c9 0008 	str.w	r0, [r9, #8]
    2ece:	f8da 10b4 	ldr.w	r1, [sl, #180]	; 0xb4
    2ed2:	f8d5 80b4 	ldr.w	r8, [r5, #180]	; 0xb4
    2ed6:	f8da 00b8 	ldr.w	r0, [sl, #184]	; 0xb8
    2eda:	912f      	str	r1, [sp, #188]	; 0xbc
    2edc:	992f      	ldr	r1, [sp, #188]	; 0xbc
    2ede:	9031      	str	r0, [sp, #196]	; 0xc4
    2ee0:	4640      	mov	r0, r8
    2ee2:	f7ff fffe 	bl	0 <__aeabi_fmul>
    2ee6:	f8d5 70b8 	ldr.w	r7, [r5, #184]	; 0xb8
    2eea:	f8da c0bc 	ldr.w	ip, [sl, #188]	; 0xbc
    2eee:	4683      	mov	fp, r0
    2ef0:	9931      	ldr	r1, [sp, #196]	; 0xc4
    2ef2:	4638      	mov	r0, r7
    2ef4:	f8cd c0c8 	str.w	ip, [sp, #200]	; 0xc8
    2ef8:	f7ff fffe 	bl	0 <__aeabi_fmul>
    2efc:	9b33      	ldr	r3, [sp, #204]	; 0xcc
    2efe:	4601      	mov	r1, r0
    2f00:	6a1a      	ldr	r2, [r3, #32]
    2f02:	4658      	mov	r0, fp
    2f04:	922e      	str	r2, [sp, #184]	; 0xb8
    2f06:	f7ff fffe 	bl	0 <__aeabi_fadd>
    2f0a:	f8da e0c0 	ldr.w	lr, [sl, #192]	; 0xc0
    2f0e:	4683      	mov	fp, r0
    2f10:	9932      	ldr	r1, [sp, #200]	; 0xc8
    2f12:	982e      	ldr	r0, [sp, #184]	; 0xb8
    2f14:	f8cd e110 	str.w	lr, [sp, #272]	; 0x110
    2f18:	f7ff fffe 	bl	0 <__aeabi_fmul>
    2f1c:	9b33      	ldr	r3, [sp, #204]	; 0xcc
    2f1e:	4601      	mov	r1, r0
    2f20:	f8d3 c024 	ldr.w	ip, [r3, #36]	; 0x24
    2f24:	4658      	mov	r0, fp
    2f26:	f8cd c0b4 	str.w	ip, [sp, #180]	; 0xb4
    2f2a:	f7ff fffe 	bl	0 <__aeabi_fadd>
    2f2e:	9944      	ldr	r1, [sp, #272]	; 0x110
    2f30:	4683      	mov	fp, r0
    2f32:	982d      	ldr	r0, [sp, #180]	; 0xb4
    2f34:	f7ff fffe 	bl	0 <__aeabi_fmul>
    2f38:	4601      	mov	r1, r0
    2f3a:	4658      	mov	r0, fp
    2f3c:	f8da b018 	ldr.w	fp, [sl, #24]
    2f40:	f8cd b104 	str.w	fp, [sp, #260]	; 0x104
    2f44:	f7ff fffe 	bl	0 <__aeabi_fadd>
    2f48:	9939      	ldr	r1, [sp, #228]	; 0xe4
    2f4a:	f7ff fffe 	bl	0 <__aeabi_fmul>
    2f4e:	f8da 201c 	ldr.w	r2, [sl, #28]
    2f52:	4683      	mov	fp, r0
    2f54:	9941      	ldr	r1, [sp, #260]	; 0x104
    2f56:	4640      	mov	r0, r8
    2f58:	923f      	str	r2, [sp, #252]	; 0xfc
    2f5a:	f7ff fffe 	bl	0 <__aeabi_fmul>
    2f5e:	4601      	mov	r1, r0
    2f60:	9863      	ldr	r0, [sp, #396]	; 0x18c
    2f62:	f7ff fffe 	bl	0 <__aeabi_fadd>
    2f66:	f8da 3020 	ldr.w	r3, [sl, #32]
    2f6a:	4680      	mov	r8, r0
    2f6c:	993f      	ldr	r1, [sp, #252]	; 0xfc
    2f6e:	4638      	mov	r0, r7
    2f70:	9342      	str	r3, [sp, #264]	; 0x108
    2f72:	f7ff fffe 	bl	0 <__aeabi_fmul>
    2f76:	4601      	mov	r1, r0
    2f78:	4640      	mov	r0, r8
    2f7a:	f7ff fffe 	bl	0 <__aeabi_fadd>
    2f7e:	f8da c024 	ldr.w	ip, [sl, #36]	; 0x24
    2f82:	9942      	ldr	r1, [sp, #264]	; 0x108
    2f84:	4680      	mov	r8, r0
    2f86:	982e      	ldr	r0, [sp, #184]	; 0xb8
    2f88:	f8cd c0f4 	str.w	ip, [sp, #244]	; 0xf4
    2f8c:	f7ff fffe 	bl	0 <__aeabi_fmul>
    2f90:	4601      	mov	r1, r0
    2f92:	4640      	mov	r0, r8
    2f94:	f7ff fffe 	bl	0 <__aeabi_fadd>
    2f98:	993d      	ldr	r1, [sp, #244]	; 0xf4
    2f9a:	4607      	mov	r7, r0
    2f9c:	982d      	ldr	r0, [sp, #180]	; 0xb4
    2f9e:	f7ff fffe 	bl	0 <__aeabi_fmul>
    2fa2:	4601      	mov	r1, r0
    2fa4:	4638      	mov	r0, r7
    2fa6:	f7ff fffe 	bl	0 <__aeabi_fadd>
    2faa:	4601      	mov	r1, r0
    2fac:	4620      	mov	r0, r4
    2fae:	f7ff fffe 	bl	0 <__aeabi_fmul>
    2fb2:	4601      	mov	r1, r0
    2fb4:	4658      	mov	r0, fp
    2fb6:	f7ff fffe 	bl	0 <__aeabi_fadd>
    2fba:	4601      	mov	r1, r0
    2fbc:	4630      	mov	r0, r6
    2fbe:	f7ff fffe 	bl	0 <__aeabi_fadd>
    2fc2:	f105 0ed0 	add.w	lr, r5, #208	; 0xd0
    2fc6:	f8cd e0d0 	str.w	lr, [sp, #208]	; 0xd0
    2fca:	f8c9 009c 	str.w	r0, [r9, #156]	; 0x9c
    2fce:	f8c9 000c 	str.w	r0, [r9, #12]
    2fd2:	f8d5 80e8 	ldr.w	r8, [r5, #232]	; 0xe8
    2fd6:	982f      	ldr	r0, [sp, #188]	; 0xbc
    2fd8:	4641      	mov	r1, r8
    2fda:	f7ff fffe 	bl	0 <__aeabi_fmul>
    2fde:	f8d5 70ec 	ldr.w	r7, [r5, #236]	; 0xec
    2fe2:	4606      	mov	r6, r0
    2fe4:	4639      	mov	r1, r7
    2fe6:	9831      	ldr	r0, [sp, #196]	; 0xc4
    2fe8:	f7ff fffe 	bl	0 <__aeabi_fmul>
    2fec:	9a34      	ldr	r2, [sp, #208]	; 0xd0
    2fee:	4601      	mov	r1, r0
    2ff0:	4630      	mov	r0, r6
    2ff2:	6a16      	ldr	r6, [r2, #32]
    2ff4:	f7ff fffe 	bl	0 <__aeabi_fadd>
    2ff8:	4631      	mov	r1, r6
    2ffa:	4683      	mov	fp, r0
    2ffc:	9832      	ldr	r0, [sp, #200]	; 0xc8
    2ffe:	f7ff fffe 	bl	0 <__aeabi_fmul>
    3002:	9b34      	ldr	r3, [sp, #208]	; 0xd0
    3004:	4601      	mov	r1, r0
    3006:	f8d3 c024 	ldr.w	ip, [r3, #36]	; 0x24
    300a:	4658      	mov	r0, fp
    300c:	f8cd c0b0 	str.w	ip, [sp, #176]	; 0xb0
    3010:	f7ff fffe 	bl	0 <__aeabi_fadd>
    3014:	992c      	ldr	r1, [sp, #176]	; 0xb0
    3016:	4683      	mov	fp, r0
    3018:	9844      	ldr	r0, [sp, #272]	; 0x110
    301a:	f7ff fffe 	bl	0 <__aeabi_fmul>
    301e:	4601      	mov	r1, r0
    3020:	4658      	mov	r0, fp
    3022:	f7ff fffe 	bl	0 <__aeabi_fadd>
    3026:	9939      	ldr	r1, [sp, #228]	; 0xe4
    3028:	f7ff fffe 	bl	0 <__aeabi_fmul>
    302c:	4641      	mov	r1, r8
    302e:	4683      	mov	fp, r0
    3030:	9841      	ldr	r0, [sp, #260]	; 0x104
    3032:	f7ff fffe 	bl	0 <__aeabi_fmul>
    3036:	4601      	mov	r1, r0
    3038:	9862      	ldr	r0, [sp, #392]	; 0x188
    303a:	f7ff fffe 	bl	0 <__aeabi_fadd>
    303e:	4639      	mov	r1, r7
    3040:	4680      	mov	r8, r0
    3042:	983f      	ldr	r0, [sp, #252]	; 0xfc
    3044:	f7ff fffe 	bl	0 <__aeabi_fmul>
    3048:	4601      	mov	r1, r0
    304a:	4640      	mov	r0, r8
    304c:	f7ff fffe 	bl	0 <__aeabi_fadd>
    3050:	4631      	mov	r1, r6
    3052:	4680      	mov	r8, r0
    3054:	9842      	ldr	r0, [sp, #264]	; 0x108
    3056:	f7ff fffe 	bl	0 <__aeabi_fmul>
    305a:	4601      	mov	r1, r0
    305c:	4640      	mov	r0, r8
    305e:	f7ff fffe 	bl	0 <__aeabi_fadd>
    3062:	992c      	ldr	r1, [sp, #176]	; 0xb0
    3064:	4607      	mov	r7, r0
    3066:	983d      	ldr	r0, [sp, #244]	; 0xf4
    3068:	f7ff fffe 	bl	0 <__aeabi_fmul>
    306c:	4601      	mov	r1, r0
    306e:	4638      	mov	r0, r7
    3070:	f7ff fffe 	bl	0 <__aeabi_fadd>
    3074:	4601      	mov	r1, r0
    3076:	4620      	mov	r0, r4
    3078:	f7ff fffe 	bl	0 <__aeabi_fmul>
    307c:	4601      	mov	r1, r0
    307e:	4658      	mov	r0, fp
    3080:	f7ff fffe 	bl	0 <__aeabi_fadd>
    3084:	4601      	mov	r1, r0
    3086:	9840      	ldr	r0, [sp, #256]	; 0x100
    3088:	f7ff fffe 	bl	0 <__aeabi_fadd>
    308c:	f505 7e82 	add.w	lr, r5, #260	; 0x104
    3090:	f8cd e100 	str.w	lr, [sp, #256]	; 0x100
    3094:	f8c9 00d0 	str.w	r0, [r9, #208]	; 0xd0
    3098:	f8c9 0010 	str.w	r0, [r9, #16]
    309c:	f8d5 811c 	ldr.w	r8, [r5, #284]	; 0x11c
    30a0:	982f      	ldr	r0, [sp, #188]	; 0xbc
    30a2:	4641      	mov	r1, r8
    30a4:	f7ff fffe 	bl	0 <__aeabi_fmul>
    30a8:	f8d5 7120 	ldr.w	r7, [r5, #288]	; 0x120
    30ac:	4683      	mov	fp, r0
    30ae:	4639      	mov	r1, r7
    30b0:	9831      	ldr	r0, [sp, #196]	; 0xc4
    30b2:	f7ff fffe 	bl	0 <__aeabi_fmul>
    30b6:	4601      	mov	r1, r0
    30b8:	4658      	mov	r0, fp
    30ba:	f7ff fffe 	bl	0 <__aeabi_fadd>
    30be:	9e40      	ldr	r6, [sp, #256]	; 0x100
    30c0:	4683      	mov	fp, r0
    30c2:	6a36      	ldr	r6, [r6, #32]
    30c4:	9832      	ldr	r0, [sp, #200]	; 0xc8
    30c6:	4631      	mov	r1, r6
    30c8:	f7ff fffe 	bl	0 <__aeabi_fmul>
    30cc:	9a40      	ldr	r2, [sp, #256]	; 0x100
    30ce:	4601      	mov	r1, r0
    30d0:	6a53      	ldr	r3, [r2, #36]	; 0x24
    30d2:	4658      	mov	r0, fp
    30d4:	932b      	str	r3, [sp, #172]	; 0xac
    30d6:	f7ff fffe 	bl	0 <__aeabi_fadd>
    30da:	992b      	ldr	r1, [sp, #172]	; 0xac
    30dc:	4683      	mov	fp, r0
    30de:	9844      	ldr	r0, [sp, #272]	; 0x110
    30e0:	f7ff fffe 	bl	0 <__aeabi_fmul>
    30e4:	4601      	mov	r1, r0
    30e6:	4658      	mov	r0, fp
    30e8:	f7ff fffe 	bl	0 <__aeabi_fadd>
    30ec:	9939      	ldr	r1, [sp, #228]	; 0xe4
    30ee:	f7ff fffe 	bl	0 <__aeabi_fmul>
    30f2:	4641      	mov	r1, r8
    30f4:	4683      	mov	fp, r0
    30f6:	9841      	ldr	r0, [sp, #260]	; 0x104
    30f8:	f7ff fffe 	bl	0 <__aeabi_fmul>
    30fc:	4601      	mov	r1, r0
    30fe:	9868      	ldr	r0, [sp, #416]	; 0x1a0
    3100:	f7ff fffe 	bl	0 <__aeabi_fadd>
    3104:	4639      	mov	r1, r7
    3106:	4680      	mov	r8, r0
    3108:	983f      	ldr	r0, [sp, #252]	; 0xfc
    310a:	f7ff fffe 	bl	0 <__aeabi_fmul>
    310e:	4601      	mov	r1, r0
    3110:	4640      	mov	r0, r8
    3112:	f7ff fffe 	bl	0 <__aeabi_fadd>
    3116:	4631      	mov	r1, r6
    3118:	4607      	mov	r7, r0
    311a:	9842      	ldr	r0, [sp, #264]	; 0x108
    311c:	f7ff fffe 	bl	0 <__aeabi_fmul>
    3120:	4601      	mov	r1, r0
    3122:	4638      	mov	r0, r7
    3124:	f7ff fffe 	bl	0 <__aeabi_fadd>
    3128:	992b      	ldr	r1, [sp, #172]	; 0xac
    312a:	4680      	mov	r8, r0
    312c:	983d      	ldr	r0, [sp, #244]	; 0xf4
    312e:	f7ff fffe 	bl	0 <__aeabi_fmul>
    3132:	4601      	mov	r1, r0
    3134:	4640      	mov	r0, r8
    3136:	f7ff fffe 	bl	0 <__aeabi_fadd>
    313a:	4601      	mov	r1, r0
    313c:	4620      	mov	r0, r4
    313e:	f7ff fffe 	bl	0 <__aeabi_fmul>
    3142:	4601      	mov	r1, r0
    3144:	4658      	mov	r0, fp
    3146:	f7ff fffe 	bl	0 <__aeabi_fadd>
    314a:	4601      	mov	r1, r0
    314c:	9837      	ldr	r0, [sp, #220]	; 0xdc
    314e:	f7ff fffe 	bl	0 <__aeabi_fadd>
    3152:	f505 789c 	add.w	r8, r5, #312	; 0x138
    3156:	f8c9 0104 	str.w	r0, [r9, #260]	; 0x104
    315a:	f8c9 0014 	str.w	r0, [r9, #20]
    315e:	f8d8 701c 	ldr.w	r7, [r8, #28]
    3162:	9831      	ldr	r0, [sp, #196]	; 0xc4
    3164:	4639      	mov	r1, r7
    3166:	f7ff fffe 	bl	0 <__aeabi_fmul>
    316a:	f8d8 6020 	ldr.w	r6, [r8, #32]
    316e:	4683      	mov	fp, r0
    3170:	4631      	mov	r1, r6
    3172:	9832      	ldr	r0, [sp, #200]	; 0xc8
    3174:	f7ff fffe 	bl	0 <__aeabi_fmul>
    3178:	4601      	mov	r1, r0
    317a:	4658      	mov	r0, fp
    317c:	f7ff fffe 	bl	0 <__aeabi_fadd>
    3180:	f8da 20c4 	ldr.w	r2, [sl, #196]	; 0xc4
    3184:	f8d8 1024 	ldr.w	r1, [r8, #36]	; 0x24
    3188:	4683      	mov	fp, r0
    318a:	9844      	ldr	r0, [sp, #272]	; 0x110
    318c:	923a      	str	r2, [sp, #232]	; 0xe8
    318e:	f7ff fffe 	bl	0 <__aeabi_fmul>
    3192:	4601      	mov	r1, r0
    3194:	4658      	mov	r0, fp
    3196:	f7ff fffe 	bl	0 <__aeabi_fadd>
    319a:	f8da c0c8 	ldr.w	ip, [sl, #200]	; 0xc8
    319e:	4683      	mov	fp, r0
    31a0:	993a      	ldr	r1, [sp, #232]	; 0xe8
    31a2:	f8d8 0028 	ldr.w	r0, [r8, #40]	; 0x28
    31a6:	f8cd c134 	str.w	ip, [sp, #308]	; 0x134
    31aa:	f7ff fffe 	bl	0 <__aeabi_fmul>
    31ae:	4601      	mov	r1, r0
    31b0:	4658      	mov	r0, fp
    31b2:	f7ff fffe 	bl	0 <__aeabi_fadd>
    31b6:	f8da 30cc 	ldr.w	r3, [sl, #204]	; 0xcc
    31ba:	4683      	mov	fp, r0
    31bc:	994d      	ldr	r1, [sp, #308]	; 0x134
    31be:	f8d8 002c 	ldr.w	r0, [r8, #44]	; 0x2c
    31c2:	9345      	str	r3, [sp, #276]	; 0x114
    31c4:	f7ff fffe 	bl	0 <__aeabi_fmul>
    31c8:	4601      	mov	r1, r0
    31ca:	4658      	mov	r0, fp
    31cc:	f7ff fffe 	bl	0 <__aeabi_fadd>
    31d0:	9945      	ldr	r1, [sp, #276]	; 0x114
    31d2:	4683      	mov	fp, r0
    31d4:	f8d8 0030 	ldr.w	r0, [r8, #48]	; 0x30
    31d8:	f7ff fffe 	bl	0 <__aeabi_fmul>
    31dc:	4601      	mov	r1, r0
    31de:	4658      	mov	r0, fp
    31e0:	f7ff fffe 	bl	0 <__aeabi_fadd>
    31e4:	9939      	ldr	r1, [sp, #228]	; 0xe4
    31e6:	f7ff fffe 	bl	0 <__aeabi_fmul>
    31ea:	4639      	mov	r1, r7
    31ec:	4683      	mov	fp, r0
    31ee:	983f      	ldr	r0, [sp, #252]	; 0xfc
    31f0:	f7ff fffe 	bl	0 <__aeabi_fmul>
    31f4:	4601      	mov	r1, r0
    31f6:	982f      	ldr	r0, [sp, #188]	; 0xbc
    31f8:	f7ff fffe 	bl	0 <__aeabi_fadd>
    31fc:	4631      	mov	r1, r6
    31fe:	4607      	mov	r7, r0
    3200:	9842      	ldr	r0, [sp, #264]	; 0x108
    3202:	f7ff fffe 	bl	0 <__aeabi_fmul>
    3206:	4601      	mov	r1, r0
    3208:	4638      	mov	r0, r7
    320a:	f7ff fffe 	bl	0 <__aeabi_fadd>
    320e:	f8da e028 	ldr.w	lr, [sl, #40]	; 0x28
    3212:	f8d8 1024 	ldr.w	r1, [r8, #36]	; 0x24
    3216:	4606      	mov	r6, r0
    3218:	983d      	ldr	r0, [sp, #244]	; 0xf4
    321a:	f8cd e0dc 	str.w	lr, [sp, #220]	; 0xdc
    321e:	f7ff fffe 	bl	0 <__aeabi_fmul>
    3222:	4601      	mov	r1, r0
    3224:	4630      	mov	r0, r6
    3226:	f7ff fffe 	bl	0 <__aeabi_fadd>
    322a:	f8da 202c 	ldr.w	r2, [sl, #44]	; 0x2c
    322e:	9937      	ldr	r1, [sp, #220]	; 0xdc
    3230:	4607      	mov	r7, r0
    3232:	f8d8 0028 	ldr.w	r0, [r8, #40]	; 0x28
    3236:	9230      	str	r2, [sp, #192]	; 0xc0
    3238:	f7ff fffe 	bl	0 <__aeabi_fmul>
    323c:	4601      	mov	r1, r0
    323e:	4638      	mov	r0, r7
    3240:	f7ff fffe 	bl	0 <__aeabi_fadd>
    3244:	f8da c030 	ldr.w	ip, [sl, #48]	; 0x30
    3248:	9930      	ldr	r1, [sp, #192]	; 0xc0
    324a:	4606      	mov	r6, r0
    324c:	f8d8 002c 	ldr.w	r0, [r8, #44]	; 0x2c
    3250:	f8cd c0d8 	str.w	ip, [sp, #216]	; 0xd8
    3254:	f7ff fffe 	bl	0 <__aeabi_fmul>
    3258:	4601      	mov	r1, r0
    325a:	4630      	mov	r0, r6
    325c:	f7ff fffe 	bl	0 <__aeabi_fadd>
    3260:	9936      	ldr	r1, [sp, #216]	; 0xd8
    3262:	4607      	mov	r7, r0
    3264:	f8d8 0030 	ldr.w	r0, [r8, #48]	; 0x30
    3268:	f7ff fffe 	bl	0 <__aeabi_fmul>
    326c:	4601      	mov	r1, r0
    326e:	4638      	mov	r0, r7
    3270:	f7ff fffe 	bl	0 <__aeabi_fadd>
    3274:	4601      	mov	r1, r0
    3276:	4620      	mov	r0, r4
    3278:	f7ff fffe 	bl	0 <__aeabi_fmul>
    327c:	4601      	mov	r1, r0
    327e:	4658      	mov	r0, fp
    3280:	f7ff fffe 	bl	0 <__aeabi_fadd>
    3284:	4601      	mov	r1, r0
    3286:	9841      	ldr	r0, [sp, #260]	; 0x104
    3288:	f7ff fffe 	bl	0 <__aeabi_fadd>
    328c:	f505 77b6 	add.w	r7, r5, #364	; 0x16c
    3290:	f8c9 0138 	str.w	r0, [r9, #312]	; 0x138
    3294:	f8c9 0018 	str.w	r0, [r9, #24]
    3298:	69be      	ldr	r6, [r7, #24]
    329a:	982f      	ldr	r0, [sp, #188]	; 0xbc
    329c:	4631      	mov	r1, r6
    329e:	f7ff fffe 	bl	0 <__aeabi_fmul>
    32a2:	6a39      	ldr	r1, [r7, #32]
    32a4:	4683      	mov	fp, r0
    32a6:	9832      	ldr	r0, [sp, #200]	; 0xc8
    32a8:	f7ff fffe 	bl	0 <__aeabi_fmul>
    32ac:	4601      	mov	r1, r0
    32ae:	4658      	mov	r0, fp
    32b0:	f7ff fffe 	bl	0 <__aeabi_fadd>
    32b4:	6a79      	ldr	r1, [r7, #36]	; 0x24
    32b6:	4683      	mov	fp, r0
    32b8:	9844      	ldr	r0, [sp, #272]	; 0x110
    32ba:	f7ff fffe 	bl	0 <__aeabi_fmul>
    32be:	4601      	mov	r1, r0
    32c0:	4658      	mov	r0, fp
    32c2:	f7ff fffe 	bl	0 <__aeabi_fadd>
    32c6:	6ab9      	ldr	r1, [r7, #40]	; 0x28
    32c8:	4683      	mov	fp, r0
    32ca:	983a      	ldr	r0, [sp, #232]	; 0xe8
    32cc:	f7ff fffe 	bl	0 <__aeabi_fmul>
    32d0:	4601      	mov	r1, r0
    32d2:	4658      	mov	r0, fp
    32d4:	f7ff fffe 	bl	0 <__aeabi_fadd>
    32d8:	6af9      	ldr	r1, [r7, #44]	; 0x2c
    32da:	4683      	mov	fp, r0
    32dc:	984d      	ldr	r0, [sp, #308]	; 0x134
    32de:	f7ff fffe 	bl	0 <__aeabi_fmul>
    32e2:	4601      	mov	r1, r0
    32e4:	4658      	mov	r0, fp
    32e6:	f7ff fffe 	bl	0 <__aeabi_fadd>
    32ea:	6b39      	ldr	r1, [r7, #48]	; 0x30
    32ec:	4683      	mov	fp, r0
    32ee:	9845      	ldr	r0, [sp, #276]	; 0x114
    32f0:	f7ff fffe 	bl	0 <__aeabi_fmul>
    32f4:	4601      	mov	r1, r0
    32f6:	4658      	mov	r0, fp
    32f8:	f7ff fffe 	bl	0 <__aeabi_fadd>
    32fc:	9939      	ldr	r1, [sp, #228]	; 0xe4
    32fe:	f7ff fffe 	bl	0 <__aeabi_fmul>
    3302:	4631      	mov	r1, r6
    3304:	4683      	mov	fp, r0
    3306:	9841      	ldr	r0, [sp, #260]	; 0x104
    3308:	f7ff fffe 	bl	0 <__aeabi_fmul>
    330c:	4601      	mov	r1, r0
    330e:	9831      	ldr	r0, [sp, #196]	; 0xc4
    3310:	f7ff fffe 	bl	0 <__aeabi_fadd>
    3314:	6a39      	ldr	r1, [r7, #32]
    3316:	4606      	mov	r6, r0
    3318:	9842      	ldr	r0, [sp, #264]	; 0x108
    331a:	f7ff fffe 	bl	0 <__aeabi_fmul>
    331e:	4601      	mov	r1, r0
    3320:	4630      	mov	r0, r6
    3322:	f7ff fffe 	bl	0 <__aeabi_fadd>
    3326:	6a79      	ldr	r1, [r7, #36]	; 0x24
    3328:	4606      	mov	r6, r0
    332a:	983d      	ldr	r0, [sp, #244]	; 0xf4
    332c:	f7ff fffe 	bl	0 <__aeabi_fmul>
    3330:	4601      	mov	r1, r0
    3332:	4630      	mov	r0, r6
    3334:	f7ff fffe 	bl	0 <__aeabi_fadd>
    3338:	6ab9      	ldr	r1, [r7, #40]	; 0x28
    333a:	4606      	mov	r6, r0
    333c:	9837      	ldr	r0, [sp, #220]	; 0xdc
    333e:	f7ff fffe 	bl	0 <__aeabi_fmul>
    3342:	4601      	mov	r1, r0
    3344:	4630      	mov	r0, r6
    3346:	f7ff fffe 	bl	0 <__aeabi_fadd>
    334a:	6af9      	ldr	r1, [r7, #44]	; 0x2c
    334c:	4606      	mov	r6, r0
    334e:	9830      	ldr	r0, [sp, #192]	; 0xc0
    3350:	f7ff fffe 	bl	0 <__aeabi_fmul>
    3354:	4601      	mov	r1, r0
    3356:	4630      	mov	r0, r6
    3358:	f7ff fffe 	bl	0 <__aeabi_fadd>
    335c:	6b39      	ldr	r1, [r7, #48]	; 0x30
    335e:	4606      	mov	r6, r0
    3360:	9836      	ldr	r0, [sp, #216]	; 0xd8
    3362:	f7ff fffe 	bl	0 <__aeabi_fmul>
    3366:	4601      	mov	r1, r0
    3368:	4630      	mov	r0, r6
    336a:	f7ff fffe 	bl	0 <__aeabi_fadd>
    336e:	4601      	mov	r1, r0
    3370:	4620      	mov	r0, r4
    3372:	f7ff fffe 	bl	0 <__aeabi_fmul>
    3376:	4601      	mov	r1, r0
    3378:	4658      	mov	r0, fp
    337a:	f7ff fffe 	bl	0 <__aeabi_fadd>
    337e:	4601      	mov	r1, r0
    3380:	983f      	ldr	r0, [sp, #252]	; 0xfc
    3382:	f7ff fffe 	bl	0 <__aeabi_fadd>
    3386:	f505 76d0 	add.w	r6, r5, #416	; 0x1a0
    338a:	f8c9 016c 	str.w	r0, [r9, #364]	; 0x16c
    338e:	f8c9 001c 	str.w	r0, [r9, #28]
    3392:	69b3      	ldr	r3, [r6, #24]
    3394:	982f      	ldr	r0, [sp, #188]	; 0xbc
    3396:	4619      	mov	r1, r3
    3398:	9303      	str	r3, [sp, #12]
    339a:	f7ff fffe 	bl	0 <__aeabi_fmul>
    339e:	69f1      	ldr	r1, [r6, #28]
    33a0:	4683      	mov	fp, r0
    33a2:	9831      	ldr	r0, [sp, #196]	; 0xc4
    33a4:	f7ff fffe 	bl	0 <__aeabi_fmul>
    33a8:	4601      	mov	r1, r0
    33aa:	4658      	mov	r0, fp
    33ac:	f7ff fffe 	bl	0 <__aeabi_fadd>
    33b0:	6a71      	ldr	r1, [r6, #36]	; 0x24
    33b2:	4683      	mov	fp, r0
    33b4:	9844      	ldr	r0, [sp, #272]	; 0x110
    33b6:	f7ff fffe 	bl	0 <__aeabi_fmul>
    33ba:	4601      	mov	r1, r0
    33bc:	4658      	mov	r0, fp
    33be:	f7ff fffe 	bl	0 <__aeabi_fadd>
    33c2:	6ab1      	ldr	r1, [r6, #40]	; 0x28
    33c4:	4683      	mov	fp, r0
    33c6:	983a      	ldr	r0, [sp, #232]	; 0xe8
    33c8:	f7ff fffe 	bl	0 <__aeabi_fmul>
    33cc:	4601      	mov	r1, r0
    33ce:	4658      	mov	r0, fp
    33d0:	f7ff fffe 	bl	0 <__aeabi_fadd>
    33d4:	6af1      	ldr	r1, [r6, #44]	; 0x2c
    33d6:	4683      	mov	fp, r0
    33d8:	984d      	ldr	r0, [sp, #308]	; 0x134
    33da:	f7ff fffe 	bl	0 <__aeabi_fmul>
    33de:	4601      	mov	r1, r0
    33e0:	4658      	mov	r0, fp
    33e2:	f7ff fffe 	bl	0 <__aeabi_fadd>
    33e6:	6b31      	ldr	r1, [r6, #48]	; 0x30
    33e8:	4683      	mov	fp, r0
    33ea:	9845      	ldr	r0, [sp, #276]	; 0x114
    33ec:	f7ff fffe 	bl	0 <__aeabi_fmul>
    33f0:	4601      	mov	r1, r0
    33f2:	4658      	mov	r0, fp
    33f4:	f7ff fffe 	bl	0 <__aeabi_fadd>
    33f8:	9939      	ldr	r1, [sp, #228]	; 0xe4
    33fa:	f7ff fffe 	bl	0 <__aeabi_fmul>
    33fe:	9903      	ldr	r1, [sp, #12]
    3400:	4602      	mov	r2, r0
    3402:	9841      	ldr	r0, [sp, #260]	; 0x104
    3404:	9201      	str	r2, [sp, #4]
    3406:	f7ff fffe 	bl	0 <__aeabi_fmul>
    340a:	4601      	mov	r1, r0
    340c:	9832      	ldr	r0, [sp, #200]	; 0xc8
    340e:	f7ff fffe 	bl	0 <__aeabi_fadd>
    3412:	69f1      	ldr	r1, [r6, #28]
    3414:	4683      	mov	fp, r0
    3416:	983f      	ldr	r0, [sp, #252]	; 0xfc
    3418:	f7ff fffe 	bl	0 <__aeabi_fmul>
    341c:	4601      	mov	r1, r0
    341e:	4658      	mov	r0, fp
    3420:	f7ff fffe 	bl	0 <__aeabi_fadd>
    3424:	6a71      	ldr	r1, [r6, #36]	; 0x24
    3426:	4683      	mov	fp, r0
    3428:	983d      	ldr	r0, [sp, #244]	; 0xf4
    342a:	f7ff fffe 	bl	0 <__aeabi_fmul>
    342e:	4601      	mov	r1, r0
    3430:	4658      	mov	r0, fp
    3432:	f7ff fffe 	bl	0 <__aeabi_fadd>
    3436:	6ab1      	ldr	r1, [r6, #40]	; 0x28
    3438:	4683      	mov	fp, r0
    343a:	9837      	ldr	r0, [sp, #220]	; 0xdc
    343c:	f7ff fffe 	bl	0 <__aeabi_fmul>
    3440:	4601      	mov	r1, r0
    3442:	4658      	mov	r0, fp
    3444:	f7ff fffe 	bl	0 <__aeabi_fadd>
    3448:	6af1      	ldr	r1, [r6, #44]	; 0x2c
    344a:	4683      	mov	fp, r0
    344c:	9830      	ldr	r0, [sp, #192]	; 0xc0
    344e:	f7ff fffe 	bl	0 <__aeabi_fmul>
    3452:	4601      	mov	r1, r0
    3454:	4658      	mov	r0, fp
    3456:	f7ff fffe 	bl	0 <__aeabi_fadd>
    345a:	6b31      	ldr	r1, [r6, #48]	; 0x30
    345c:	4683      	mov	fp, r0
    345e:	9836      	ldr	r0, [sp, #216]	; 0xd8
    3460:	f7ff fffe 	bl	0 <__aeabi_fmul>
    3464:	4601      	mov	r1, r0
    3466:	4658      	mov	r0, fp
    3468:	f7ff fffe 	bl	0 <__aeabi_fadd>
    346c:	4601      	mov	r1, r0
    346e:	4620      	mov	r0, r4
    3470:	f7ff fffe 	bl	0 <__aeabi_fmul>
    3474:	4601      	mov	r1, r0
    3476:	9801      	ldr	r0, [sp, #4]
    3478:	f7ff fffe 	bl	0 <__aeabi_fadd>
    347c:	4601      	mov	r1, r0
    347e:	9842      	ldr	r0, [sp, #264]	; 0x108
    3480:	f7ff fffe 	bl	0 <__aeabi_fadd>
    3484:	f505 75ea 	add.w	r5, r5, #468	; 0x1d4
    3488:	f8c9 01a0 	str.w	r0, [r9, #416]	; 0x1a0
    348c:	f8c9 0020 	str.w	r0, [r9, #32]
    3490:	69aa      	ldr	r2, [r5, #24]
    3492:	982f      	ldr	r0, [sp, #188]	; 0xbc
    3494:	4611      	mov	r1, r2
    3496:	9203      	str	r2, [sp, #12]
    3498:	f7ff fffe 	bl	0 <__aeabi_fmul>
    349c:	69e9      	ldr	r1, [r5, #28]
    349e:	4683      	mov	fp, r0
    34a0:	9831      	ldr	r0, [sp, #196]	; 0xc4
    34a2:	f7ff fffe 	bl	0 <__aeabi_fmul>
    34a6:	4601      	mov	r1, r0
    34a8:	4658      	mov	r0, fp
    34aa:	f7ff fffe 	bl	0 <__aeabi_fadd>
    34ae:	6a29      	ldr	r1, [r5, #32]
    34b0:	4683      	mov	fp, r0
    34b2:	9832      	ldr	r0, [sp, #200]	; 0xc8
    34b4:	f7ff fffe 	bl	0 <__aeabi_fmul>
    34b8:	4601      	mov	r1, r0
    34ba:	4658      	mov	r0, fp
    34bc:	f7ff fffe 	bl	0 <__aeabi_fadd>
    34c0:	6aa9      	ldr	r1, [r5, #40]	; 0x28
    34c2:	4683      	mov	fp, r0
    34c4:	983a      	ldr	r0, [sp, #232]	; 0xe8
    34c6:	f7ff fffe 	bl	0 <__aeabi_fmul>
    34ca:	4601      	mov	r1, r0
    34cc:	4658      	mov	r0, fp
    34ce:	f7ff fffe 	bl	0 <__aeabi_fadd>
    34d2:	6ae9      	ldr	r1, [r5, #44]	; 0x2c
    34d4:	4683      	mov	fp, r0
    34d6:	984d      	ldr	r0, [sp, #308]	; 0x134
    34d8:	f7ff fffe 	bl	0 <__aeabi_fmul>
    34dc:	4601      	mov	r1, r0
    34de:	4658      	mov	r0, fp
    34e0:	f7ff fffe 	bl	0 <__aeabi_fadd>
    34e4:	6b29      	ldr	r1, [r5, #48]	; 0x30
    34e6:	4683      	mov	fp, r0
    34e8:	9845      	ldr	r0, [sp, #276]	; 0x114
    34ea:	f7ff fffe 	bl	0 <__aeabi_fmul>
    34ee:	4601      	mov	r1, r0
    34f0:	4658      	mov	r0, fp
    34f2:	f7ff fffe 	bl	0 <__aeabi_fadd>
    34f6:	9939      	ldr	r1, [sp, #228]	; 0xe4
    34f8:	f7ff fffe 	bl	0 <__aeabi_fmul>
    34fc:	9b03      	ldr	r3, [sp, #12]
    34fe:	4602      	mov	r2, r0
    3500:	4619      	mov	r1, r3
    3502:	9841      	ldr	r0, [sp, #260]	; 0x104
    3504:	9201      	str	r2, [sp, #4]
    3506:	f7ff fffe 	bl	0 <__aeabi_fmul>
    350a:	4601      	mov	r1, r0
    350c:	9844      	ldr	r0, [sp, #272]	; 0x110
    350e:	f7ff fffe 	bl	0 <__aeabi_fadd>
    3512:	69e9      	ldr	r1, [r5, #28]
    3514:	4683      	mov	fp, r0
    3516:	983f      	ldr	r0, [sp, #252]	; 0xfc
    3518:	f7ff fffe 	bl	0 <__aeabi_fmul>
    351c:	4601      	mov	r1, r0
    351e:	4658      	mov	r0, fp
    3520:	f7ff fffe 	bl	0 <__aeabi_fadd>
    3524:	6a29      	ldr	r1, [r5, #32]
    3526:	4683      	mov	fp, r0
    3528:	9842      	ldr	r0, [sp, #264]	; 0x108
    352a:	f7ff fffe 	bl	0 <__aeabi_fmul>
    352e:	4601      	mov	r1, r0
    3530:	4658      	mov	r0, fp
    3532:	f7ff fffe 	bl	0 <__aeabi_fadd>
    3536:	6aa9      	ldr	r1, [r5, #40]	; 0x28
    3538:	4683      	mov	fp, r0
    353a:	9837      	ldr	r0, [sp, #220]	; 0xdc
    353c:	f7ff fffe 	bl	0 <__aeabi_fmul>
    3540:	4601      	mov	r1, r0
    3542:	4658      	mov	r0, fp
    3544:	f7ff fffe 	bl	0 <__aeabi_fadd>
    3548:	6ae9      	ldr	r1, [r5, #44]	; 0x2c
    354a:	4683      	mov	fp, r0
    354c:	9830      	ldr	r0, [sp, #192]	; 0xc0
    354e:	f7ff fffe 	bl	0 <__aeabi_fmul>
    3552:	4601      	mov	r1, r0
    3554:	4658      	mov	r0, fp
    3556:	f7ff fffe 	bl	0 <__aeabi_fadd>
    355a:	6b29      	ldr	r1, [r5, #48]	; 0x30
    355c:	4683      	mov	fp, r0
    355e:	9836      	ldr	r0, [sp, #216]	; 0xd8
    3560:	f7ff fffe 	bl	0 <__aeabi_fmul>
    3564:	4601      	mov	r1, r0
    3566:	4658      	mov	r0, fp
    3568:	f7ff fffe 	bl	0 <__aeabi_fadd>
    356c:	4601      	mov	r1, r0
    356e:	4620      	mov	r0, r4
    3570:	f7ff fffe 	bl	0 <__aeabi_fmul>
    3574:	4601      	mov	r1, r0
    3576:	9801      	ldr	r0, [sp, #4]
    3578:	f7ff fffe 	bl	0 <__aeabi_fadd>
    357c:	4601      	mov	r1, r0
    357e:	983d      	ldr	r0, [sp, #244]	; 0xf4
    3580:	f7ff fffe 	bl	0 <__aeabi_fadd>
    3584:	4601      	mov	r1, r0
    3586:	f8c9 01d4 	str.w	r0, [r9, #468]	; 0x1d4
    358a:	f8c9 1024 	str.w	r1, [r9, #36]	; 0x24
    358e:	4620      	mov	r0, r4
    3590:	993a      	ldr	r1, [sp, #232]	; 0xe8
    3592:	f7ff fffe 	bl	0 <__aeabi_fmul>
    3596:	4601      	mov	r1, r0
    3598:	9837      	ldr	r0, [sp, #220]	; 0xdc
    359a:	f7ff fffe 	bl	0 <__aeabi_fadd>
    359e:	994d      	ldr	r1, [sp, #308]	; 0x134
    35a0:	f8c9 0208 	str.w	r0, [r9, #520]	; 0x208
    35a4:	f8c9 0028 	str.w	r0, [r9, #40]	; 0x28
    35a8:	4620      	mov	r0, r4
    35aa:	f7ff fffe 	bl	0 <__aeabi_fmul>
    35ae:	4601      	mov	r1, r0
    35b0:	9830      	ldr	r0, [sp, #192]	; 0xc0
    35b2:	f7ff fffe 	bl	0 <__aeabi_fadd>
    35b6:	9945      	ldr	r1, [sp, #276]	; 0x114
    35b8:	f8c9 023c 	str.w	r0, [r9, #572]	; 0x23c
    35bc:	f8c9 002c 	str.w	r0, [r9, #44]	; 0x2c
    35c0:	4620      	mov	r0, r4
    35c2:	f7ff fffe 	bl	0 <__aeabi_fmul>
    35c6:	4601      	mov	r1, r0
    35c8:	9836      	ldr	r0, [sp, #216]	; 0xd8
    35ca:	f7ff fffe 	bl	0 <__aeabi_fadd>
    35ce:	f8da e0e0 	ldr.w	lr, [sl, #224]	; 0xe0
    35d2:	f8da 2044 	ldr.w	r2, [sl, #68]	; 0x44
    35d6:	f8cd e1b8 	str.w	lr, [sp, #440]	; 0x1b8
    35da:	9939      	ldr	r1, [sp, #228]	; 0xe4
    35dc:	f8c9 0270 	str.w	r0, [r9, #624]	; 0x270
    35e0:	f8c9 0030 	str.w	r0, [r9, #48]	; 0x30
    35e4:	4670      	mov	r0, lr
    35e6:	9203      	str	r2, [sp, #12]
    35e8:	f7ff fffe 	bl	0 <__aeabi_fmul>
    35ec:	9b03      	ldr	r3, [sp, #12]
    35ee:	4683      	mov	fp, r0
    35f0:	4619      	mov	r1, r3
    35f2:	4618      	mov	r0, r3
    35f4:	f7ff fffe 	bl	0 <__aeabi_fadd>
    35f8:	4601      	mov	r1, r0
    35fa:	4620      	mov	r0, r4
    35fc:	f7ff fffe 	bl	0 <__aeabi_fmul>
    3600:	4601      	mov	r1, r0
    3602:	4658      	mov	r0, fp
    3604:	f7ff fffe 	bl	0 <__aeabi_fadd>
    3608:	f8da 1038 	ldr.w	r1, [sl, #56]	; 0x38
    360c:	f7ff fffe 	bl	0 <__aeabi_fadd>
    3610:	f8da 20e4 	ldr.w	r2, [sl, #228]	; 0xe4
    3614:	f8da c048 	ldr.w	ip, [sl, #72]	; 0x48
    3618:	9b3e      	ldr	r3, [sp, #248]	; 0xf8
    361a:	f8da 1078 	ldr.w	r1, [sl, #120]	; 0x78
    361e:	9269      	str	r2, [sp, #420]	; 0x1a4
    3620:	f8cd c0c0 	str.w	ip, [sp, #192]	; 0xc0
    3624:	9143      	str	r1, [sp, #268]	; 0x10c
    3626:	6058      	str	r0, [r3, #4]
    3628:	9939      	ldr	r1, [sp, #228]	; 0xe4
    362a:	9869      	ldr	r0, [sp, #420]	; 0x1a4
    362c:	f7ff fffe 	bl	0 <__aeabi_fmul>
    3630:	9943      	ldr	r1, [sp, #268]	; 0x10c
    3632:	4683      	mov	fp, r0
    3634:	9830      	ldr	r0, [sp, #192]	; 0xc0
    3636:	f7ff fffe 	bl	0 <__aeabi_fadd>
    363a:	4601      	mov	r1, r0
    363c:	4620      	mov	r0, r4
    363e:	f7ff fffe 	bl	0 <__aeabi_fmul>
    3642:	4601      	mov	r1, r0
    3644:	4658      	mov	r0, fp
    3646:	f7ff fffe 	bl	0 <__aeabi_fadd>
    364a:	f8da 103c 	ldr.w	r1, [sl, #60]	; 0x3c
    364e:	f7ff fffe 	bl	0 <__aeabi_fadd>
    3652:	f109 0268 	add.w	r2, r9, #104	; 0x68
    3656:	9241      	str	r2, [sp, #260]	; 0x104
    3658:	f8dd c0f8 	ldr.w	ip, [sp, #248]	; 0xf8
    365c:	f8c9 006c 	str.w	r0, [r9, #108]	; 0x6c
    3660:	f8cc 0008 	str.w	r0, [ip, #8]
    3664:	9833      	ldr	r0, [sp, #204]	; 0xcc
    3666:	f8da e0e8 	ldr.w	lr, [sl, #232]	; 0xe8
    366a:	6983      	ldr	r3, [r0, #24]
    366c:	69c1      	ldr	r1, [r0, #28]
    366e:	f8da b0ec 	ldr.w	fp, [sl, #236]	; 0xec
    3672:	f8cd e11c 	str.w	lr, [sp, #284]	; 0x11c
    3676:	4618      	mov	r0, r3
    3678:	912a      	str	r1, [sp, #168]	; 0xa8
    367a:	9947      	ldr	r1, [sp, #284]	; 0x11c
    367c:	9301      	str	r3, [sp, #4]
    367e:	f8cd b144 	str.w	fp, [sp, #324]	; 0x144
    3682:	f7ff fffe 	bl	0 <__aeabi_fmul>
    3686:	f8dd c0cc 	ldr.w	ip, [sp, #204]	; 0xcc
    368a:	f8da 20f0 	ldr.w	r2, [sl, #240]	; 0xf0
    368e:	f8dc e020 	ldr.w	lr, [ip, #32]
    3692:	4683      	mov	fp, r0
    3694:	9951      	ldr	r1, [sp, #324]	; 0x144
    3696:	982a      	ldr	r0, [sp, #168]	; 0xa8
    3698:	f8cd e0a4 	str.w	lr, [sp, #164]	; 0xa4
    369c:	925f      	str	r2, [sp, #380]	; 0x17c
    369e:	f7ff fffe 	bl	0 <__aeabi_fmul>
    36a2:	4601      	mov	r1, r0
    36a4:	4658      	mov	r0, fp
    36a6:	f7ff fffe 	bl	0 <__aeabi_fadd>
    36aa:	f8da 30f4 	ldr.w	r3, [sl, #244]	; 0xf4
    36ae:	4683      	mov	fp, r0
    36b0:	995f      	ldr	r1, [sp, #380]	; 0x17c
    36b2:	9829      	ldr	r0, [sp, #164]	; 0xa4
    36b4:	934c      	str	r3, [sp, #304]	; 0x130
    36b6:	f7ff fffe 	bl	0 <__aeabi_fmul>
    36ba:	f8dd c0cc 	ldr.w	ip, [sp, #204]	; 0xcc
    36be:	4601      	mov	r1, r0
    36c0:	f8dc 2024 	ldr.w	r2, [ip, #36]	; 0x24
    36c4:	4658      	mov	r0, fp
    36c6:	9228      	str	r2, [sp, #160]	; 0xa0
    36c8:	f7ff fffe 	bl	0 <__aeabi_fadd>
    36cc:	994c      	ldr	r1, [sp, #304]	; 0x130
    36ce:	4683      	mov	fp, r0
    36d0:	9828      	ldr	r0, [sp, #160]	; 0xa0
    36d2:	f7ff fffe 	bl	0 <__aeabi_fmul>
    36d6:	f8da e04c 	ldr.w	lr, [sl, #76]	; 0x4c
    36da:	4601      	mov	r1, r0
    36dc:	4658      	mov	r0, fp
    36de:	f8cd e0fc 	str.w	lr, [sp, #252]	; 0xfc
    36e2:	f7ff fffe 	bl	0 <__aeabi_fadd>
    36e6:	9939      	ldr	r1, [sp, #228]	; 0xe4
    36e8:	f7ff fffe 	bl	0 <__aeabi_fmul>
    36ec:	f8da 3050 	ldr.w	r3, [sl, #80]	; 0x50
    36f0:	4683      	mov	fp, r0
    36f2:	993f      	ldr	r1, [sp, #252]	; 0xfc
    36f4:	9801      	ldr	r0, [sp, #4]
    36f6:	9342      	str	r3, [sp, #264]	; 0x108
    36f8:	f8cd b008 	str.w	fp, [sp, #8]
    36fc:	f7ff fffe 	bl	0 <__aeabi_fmul>
    3700:	4601      	mov	r1, r0
    3702:	9862      	ldr	r0, [sp, #392]	; 0x188
    3704:	f7ff fffe 	bl	0 <__aeabi_fadd>
    3708:	f8da c054 	ldr.w	ip, [sl, #84]	; 0x54
    370c:	9942      	ldr	r1, [sp, #264]	; 0x108
    370e:	4683      	mov	fp, r0
    3710:	982a      	ldr	r0, [sp, #168]	; 0xa8
    3712:	f8cd c0f4 	str.w	ip, [sp, #244]	; 0xf4
    3716:	f7ff fffe 	bl	0 <__aeabi_fmul>
    371a:	4601      	mov	r1, r0
    371c:	4658      	mov	r0, fp
    371e:	f7ff fffe 	bl	0 <__aeabi_fadd>
    3722:	f8da 2058 	ldr.w	r2, [sl, #88]	; 0x58
    3726:	993d      	ldr	r1, [sp, #244]	; 0xf4
    3728:	4683      	mov	fp, r0
    372a:	9829      	ldr	r0, [sp, #164]	; 0xa4
    372c:	9237      	str	r2, [sp, #220]	; 0xdc
    372e:	f7ff fffe 	bl	0 <__aeabi_fmul>
    3732:	4601      	mov	r1, r0
    3734:	4658      	mov	r0, fp
    3736:	f7ff fffe 	bl	0 <__aeabi_fadd>
    373a:	9937      	ldr	r1, [sp, #220]	; 0xdc
    373c:	4683      	mov	fp, r0
    373e:	9828      	ldr	r0, [sp, #160]	; 0xa0
    3740:	f7ff fffe 	bl	0 <__aeabi_fmul>
    3744:	4601      	mov	r1, r0
    3746:	4658      	mov	r0, fp
    3748:	f7ff fffe 	bl	0 <__aeabi_fadd>
    374c:	4601      	mov	r1, r0
    374e:	4620      	mov	r0, r4
    3750:	f7ff fffe 	bl	0 <__aeabi_fmul>
    3754:	f8dd b008 	ldr.w	fp, [sp, #8]
    3758:	4601      	mov	r1, r0
    375a:	4658      	mov	r0, fp
    375c:	f7ff fffe 	bl	0 <__aeabi_fadd>
    3760:	f109 0e9c 	add.w	lr, r9, #156	; 0x9c
    3764:	4601      	mov	r1, r0
    3766:	9835      	ldr	r0, [sp, #212]	; 0xd4
    3768:	f8cd e12c 	str.w	lr, [sp, #300]	; 0x12c
    376c:	f7ff fffe 	bl	0 <__aeabi_fadd>
    3770:	9b4b      	ldr	r3, [sp, #300]	; 0x12c
    3772:	993e      	ldr	r1, [sp, #248]	; 0xf8
    3774:	f8dd c0d0 	ldr.w	ip, [sp, #208]	; 0xd0
    3778:	6058      	str	r0, [r3, #4]
    377a:	60c8      	str	r0, [r1, #12]
    377c:	f8dc 2018 	ldr.w	r2, [ip, #24]
    3780:	f8dc 001c 	ldr.w	r0, [ip, #28]
    3784:	4611      	mov	r1, r2
    3786:	9027      	str	r0, [sp, #156]	; 0x9c
    3788:	9847      	ldr	r0, [sp, #284]	; 0x11c
    378a:	9201      	str	r2, [sp, #4]
    378c:	f7ff fffe 	bl	0 <__aeabi_fmul>
    3790:	9927      	ldr	r1, [sp, #156]	; 0x9c
    3792:	4683      	mov	fp, r0
    3794:	9851      	ldr	r0, [sp, #324]	; 0x144
    3796:	f7ff fffe 	bl	0 <__aeabi_fmul>
    379a:	f8dd e0d0 	ldr.w	lr, [sp, #208]	; 0xd0
    379e:	4601      	mov	r1, r0
    37a0:	f8de 3020 	ldr.w	r3, [lr, #32]
    37a4:	4658      	mov	r0, fp
    37a6:	9326      	str	r3, [sp, #152]	; 0x98
    37a8:	f7ff fffe 	bl	0 <__aeabi_fadd>
    37ac:	9926      	ldr	r1, [sp, #152]	; 0x98
    37ae:	4683      	mov	fp, r0
    37b0:	985f      	ldr	r0, [sp, #380]	; 0x17c
    37b2:	f7ff fffe 	bl	0 <__aeabi_fmul>
    37b6:	f8dd c0d0 	ldr.w	ip, [sp, #208]	; 0xd0
    37ba:	4601      	mov	r1, r0
    37bc:	f8dc e024 	ldr.w	lr, [ip, #36]	; 0x24
    37c0:	4658      	mov	r0, fp
    37c2:	f8cd e094 	str.w	lr, [sp, #148]	; 0x94
    37c6:	f7ff fffe 	bl	0 <__aeabi_fadd>
    37ca:	9925      	ldr	r1, [sp, #148]	; 0x94
    37cc:	4683      	mov	fp, r0
    37ce:	984c      	ldr	r0, [sp, #304]	; 0x130
    37d0:	f7ff fffe 	bl	0 <__aeabi_fmul>
    37d4:	4601      	mov	r1, r0
    37d6:	4658      	mov	r0, fp
    37d8:	f7ff fffe 	bl	0 <__aeabi_fadd>
    37dc:	9939      	ldr	r1, [sp, #228]	; 0xe4
    37de:	f7ff fffe 	bl	0 <__aeabi_fmul>
    37e2:	9901      	ldr	r1, [sp, #4]
    37e4:	4684      	mov	ip, r0
    37e6:	983f      	ldr	r0, [sp, #252]	; 0xfc
    37e8:	f8cd c008 	str.w	ip, [sp, #8]
    37ec:	f7ff fffe 	bl	0 <__aeabi_fmul>
    37f0:	4601      	mov	r1, r0
    37f2:	986e      	ldr	r0, [sp, #440]	; 0x1b8
    37f4:	f7ff fffe 	bl	0 <__aeabi_fadd>
    37f8:	9927      	ldr	r1, [sp, #156]	; 0x9c
    37fa:	4683      	mov	fp, r0
    37fc:	9842      	ldr	r0, [sp, #264]	; 0x108
    37fe:	f7ff fffe 	bl	0 <__aeabi_fmul>
    3802:	4601      	mov	r1, r0
    3804:	4658      	mov	r0, fp
    3806:	f7ff fffe 	bl	0 <__aeabi_fadd>
    380a:	9926      	ldr	r1, [sp, #152]	; 0x98
    380c:	4683      	mov	fp, r0
    380e:	983d      	ldr	r0, [sp, #244]	; 0xf4
    3810:	f7ff fffe 	bl	0 <__aeabi_fmul>
    3814:	4601      	mov	r1, r0
    3816:	4658      	mov	r0, fp
    3818:	f7ff fffe 	bl	0 <__aeabi_fadd>
    381c:	9925      	ldr	r1, [sp, #148]	; 0x94
    381e:	4683      	mov	fp, r0
    3820:	9837      	ldr	r0, [sp, #220]	; 0xdc
    3822:	f7ff fffe 	bl	0 <__aeabi_fmul>
    3826:	4601      	mov	r1, r0
    3828:	4658      	mov	r0, fp
    382a:	f7ff fffe 	bl	0 <__aeabi_fadd>
    382e:	4601      	mov	r1, r0
    3830:	4620      	mov	r0, r4
    3832:	f7ff fffe 	bl	0 <__aeabi_fmul>
    3836:	f8dd b008 	ldr.w	fp, [sp, #8]
    383a:	4601      	mov	r1, r0
    383c:	4658      	mov	r0, fp
    383e:	f7ff fffe 	bl	0 <__aeabi_fadd>
    3842:	f109 02d0 	add.w	r2, r9, #208	; 0xd0
    3846:	4601      	mov	r1, r0
    3848:	9803      	ldr	r0, [sp, #12]
    384a:	9246      	str	r2, [sp, #280]	; 0x118
    384c:	f7ff fffe 	bl	0 <__aeabi_fadd>
    3850:	f8dd c0f8 	ldr.w	ip, [sp, #248]	; 0xf8
    3854:	9b46      	ldr	r3, [sp, #280]	; 0x118
    3856:	6058      	str	r0, [r3, #4]
    3858:	f8cc 0010 	str.w	r0, [ip, #16]
    385c:	9840      	ldr	r0, [sp, #256]	; 0x100
    385e:	6982      	ldr	r2, [r0, #24]
    3860:	69c1      	ldr	r1, [r0, #28]
    3862:	9847      	ldr	r0, [sp, #284]	; 0x11c
    3864:	9124      	str	r1, [sp, #144]	; 0x90
    3866:	4611      	mov	r1, r2
    3868:	9203      	str	r2, [sp, #12]
    386a:	f7ff fffe 	bl	0 <__aeabi_fmul>
    386e:	9924      	ldr	r1, [sp, #144]	; 0x90
    3870:	4683      	mov	fp, r0
    3872:	9851      	ldr	r0, [sp, #324]	; 0x144
    3874:	f7ff fffe 	bl	0 <__aeabi_fmul>
    3878:	9b40      	ldr	r3, [sp, #256]	; 0x100
    387a:	4601      	mov	r1, r0
    387c:	6a1a      	ldr	r2, [r3, #32]
    387e:	4658      	mov	r0, fp
    3880:	9223      	str	r2, [sp, #140]	; 0x8c
    3882:	f7ff fffe 	bl	0 <__aeabi_fadd>
    3886:	9923      	ldr	r1, [sp, #140]	; 0x8c
    3888:	4683      	mov	fp, r0
    388a:	985f      	ldr	r0, [sp, #380]	; 0x17c
    388c:	f7ff fffe 	bl	0 <__aeabi_fmul>
    3890:	f8dd e100 	ldr.w	lr, [sp, #256]	; 0x100
    3894:	4601      	mov	r1, r0
    3896:	f8de c024 	ldr.w	ip, [lr, #36]	; 0x24
    389a:	4658      	mov	r0, fp
    389c:	f8cd c088 	str.w	ip, [sp, #136]	; 0x88
    38a0:	f7ff fffe 	bl	0 <__aeabi_fadd>
    38a4:	9922      	ldr	r1, [sp, #136]	; 0x88
    38a6:	4683      	mov	fp, r0
    38a8:	984c      	ldr	r0, [sp, #304]	; 0x130
    38aa:	f7ff fffe 	bl	0 <__aeabi_fmul>
    38ae:	4601      	mov	r1, r0
    38b0:	4658      	mov	r0, fp
    38b2:	f7ff fffe 	bl	0 <__aeabi_fadd>
    38b6:	9939      	ldr	r1, [sp, #228]	; 0xe4
    38b8:	f7ff fffe 	bl	0 <__aeabi_fmul>
    38bc:	9b03      	ldr	r3, [sp, #12]
    38be:	4602      	mov	r2, r0
    38c0:	4619      	mov	r1, r3
    38c2:	983f      	ldr	r0, [sp, #252]	; 0xfc
    38c4:	9201      	str	r2, [sp, #4]
    38c6:	f7ff fffe 	bl	0 <__aeabi_fmul>
    38ca:	4601      	mov	r1, r0
    38cc:	9869      	ldr	r0, [sp, #420]	; 0x1a4
    38ce:	f7ff fffe 	bl	0 <__aeabi_fadd>
    38d2:	9924      	ldr	r1, [sp, #144]	; 0x90
    38d4:	4683      	mov	fp, r0
    38d6:	9842      	ldr	r0, [sp, #264]	; 0x108
    38d8:	f7ff fffe 	bl	0 <__aeabi_fmul>
    38dc:	4601      	mov	r1, r0
    38de:	4658      	mov	r0, fp
    38e0:	f7ff fffe 	bl	0 <__aeabi_fadd>
    38e4:	9923      	ldr	r1, [sp, #140]	; 0x8c
    38e6:	4683      	mov	fp, r0
    38e8:	983d      	ldr	r0, [sp, #244]	; 0xf4
    38ea:	f7ff fffe 	bl	0 <__aeabi_fmul>
    38ee:	4601      	mov	r1, r0
    38f0:	4658      	mov	r0, fp
    38f2:	f7ff fffe 	bl	0 <__aeabi_fadd>
    38f6:	9922      	ldr	r1, [sp, #136]	; 0x88
    38f8:	4683      	mov	fp, r0
    38fa:	9837      	ldr	r0, [sp, #220]	; 0xdc
    38fc:	f7ff fffe 	bl	0 <__aeabi_fmul>
    3900:	4601      	mov	r1, r0
    3902:	4658      	mov	r0, fp
    3904:	f7ff fffe 	bl	0 <__aeabi_fadd>
    3908:	4601      	mov	r1, r0
    390a:	4620      	mov	r0, r4
    390c:	f7ff fffe 	bl	0 <__aeabi_fmul>
    3910:	4601      	mov	r1, r0
    3912:	9801      	ldr	r0, [sp, #4]
    3914:	f7ff fffe 	bl	0 <__aeabi_fadd>
    3918:	f509 7282 	add.w	r2, r9, #260	; 0x104
    391c:	4601      	mov	r1, r0
    391e:	9830      	ldr	r0, [sp, #192]	; 0xc0
    3920:	9257      	str	r2, [sp, #348]	; 0x15c
    3922:	f7ff fffe 	bl	0 <__aeabi_fadd>
    3926:	f8dd e0f8 	ldr.w	lr, [sp, #248]	; 0xf8
    392a:	9957      	ldr	r1, [sp, #348]	; 0x15c
    392c:	6048      	str	r0, [r1, #4]
    392e:	f8ce 0014 	str.w	r0, [lr, #20]
    3932:	f8d8 301c 	ldr.w	r3, [r8, #28]
    3936:	9851      	ldr	r0, [sp, #324]	; 0x144
    3938:	4619      	mov	r1, r3
    393a:	9303      	str	r3, [sp, #12]
    393c:	f7ff fffe 	bl	0 <__aeabi_fmul>
    3940:	f8d8 1020 	ldr.w	r1, [r8, #32]
    3944:	4683      	mov	fp, r0
    3946:	985f      	ldr	r0, [sp, #380]	; 0x17c
    3948:	f7ff fffe 	bl	0 <__aeabi_fmul>
    394c:	4601      	mov	r1, r0
    394e:	4658      	mov	r0, fp
    3950:	f7ff fffe 	bl	0 <__aeabi_fadd>
    3954:	f8da 20f8 	ldr.w	r2, [sl, #248]	; 0xf8
    3958:	f8d8 1024 	ldr.w	r1, [r8, #36]	; 0x24
    395c:	4683      	mov	fp, r0
    395e:	984c      	ldr	r0, [sp, #304]	; 0x130
    3960:	9254      	str	r2, [sp, #336]	; 0x150
    3962:	f7ff fffe 	bl	0 <__aeabi_fmul>
    3966:	4601      	mov	r1, r0
    3968:	4658      	mov	r0, fp
    396a:	f7ff fffe 	bl	0 <__aeabi_fadd>
    396e:	f8da 30fc 	ldr.w	r3, [sl, #252]	; 0xfc
    3972:	4683      	mov	fp, r0
    3974:	9954      	ldr	r1, [sp, #336]	; 0x150
    3976:	f8d8 0028 	ldr.w	r0, [r8, #40]	; 0x28
    397a:	9358      	str	r3, [sp, #352]	; 0x160
    397c:	f7ff fffe 	bl	0 <__aeabi_fmul>
    3980:	4601      	mov	r1, r0
    3982:	4658      	mov	r0, fp
    3984:	f7ff fffe 	bl	0 <__aeabi_fadd>
    3988:	f8da c100 	ldr.w	ip, [sl, #256]	; 0x100
    398c:	4683      	mov	fp, r0
    398e:	9958      	ldr	r1, [sp, #352]	; 0x160
    3990:	f8d8 002c 	ldr.w	r0, [r8, #44]	; 0x2c
    3994:	f8cd c154 	str.w	ip, [sp, #340]	; 0x154
    3998:	f7ff fffe 	bl	0 <__aeabi_fmul>
    399c:	4601      	mov	r1, r0
    399e:	4658      	mov	r0, fp
    39a0:	f7ff fffe 	bl	0 <__aeabi_fadd>
    39a4:	9955      	ldr	r1, [sp, #340]	; 0x154
    39a6:	4683      	mov	fp, r0
    39a8:	f8d8 0030 	ldr.w	r0, [r8, #48]	; 0x30
    39ac:	f7ff fffe 	bl	0 <__aeabi_fmul>
    39b0:	4601      	mov	r1, r0
    39b2:	4658      	mov	r0, fp
    39b4:	f7ff fffe 	bl	0 <__aeabi_fadd>
    39b8:	9939      	ldr	r1, [sp, #228]	; 0xe4
    39ba:	f7ff fffe 	bl	0 <__aeabi_fmul>
    39be:	9903      	ldr	r1, [sp, #12]
    39c0:	4602      	mov	r2, r0
    39c2:	9842      	ldr	r0, [sp, #264]	; 0x108
    39c4:	9201      	str	r2, [sp, #4]
    39c6:	f7ff fffe 	bl	0 <__aeabi_fmul>
    39ca:	4601      	mov	r1, r0
    39cc:	9847      	ldr	r0, [sp, #284]	; 0x11c
    39ce:	f7ff fffe 	bl	0 <__aeabi_fadd>
    39d2:	f8d8 1020 	ldr.w	r1, [r8, #32]
    39d6:	4683      	mov	fp, r0
    39d8:	983d      	ldr	r0, [sp, #244]	; 0xf4
    39da:	f7ff fffe 	bl	0 <__aeabi_fmul>
    39de:	4601      	mov	r1, r0
    39e0:	4658      	mov	r0, fp
    39e2:	f7ff fffe 	bl	0 <__aeabi_fadd>
    39e6:	f8da 205c 	ldr.w	r2, [sl, #92]	; 0x5c
    39ea:	f8d8 1024 	ldr.w	r1, [r8, #36]	; 0x24
    39ee:	4683      	mov	fp, r0
    39f0:	9837      	ldr	r0, [sp, #220]	; 0xdc
    39f2:	9230      	str	r2, [sp, #192]	; 0xc0
    39f4:	f7ff fffe 	bl	0 <__aeabi_fmul>
    39f8:	4601      	mov	r1, r0
    39fa:	4658      	mov	r0, fp
    39fc:	f7ff fffe 	bl	0 <__aeabi_fadd>
    3a00:	f8da e060 	ldr.w	lr, [sl, #96]	; 0x60
    3a04:	9930      	ldr	r1, [sp, #192]	; 0xc0
    3a06:	4683      	mov	fp, r0
    3a08:	f8d8 0028 	ldr.w	r0, [r8, #40]	; 0x28
    3a0c:	f8cd e0d8 	str.w	lr, [sp, #216]	; 0xd8
    3a10:	f7ff fffe 	bl	0 <__aeabi_fmul>
    3a14:	4601      	mov	r1, r0
    3a16:	4658      	mov	r0, fp
    3a18:	f7ff fffe 	bl	0 <__aeabi_fadd>
    3a1c:	f8da 3064 	ldr.w	r3, [sl, #100]	; 0x64
    3a20:	9936      	ldr	r1, [sp, #216]	; 0xd8
    3a22:	4683      	mov	fp, r0
    3a24:	f8d8 002c 	ldr.w	r0, [r8, #44]	; 0x2c
    3a28:	9335      	str	r3, [sp, #212]	; 0xd4
    3a2a:	f7ff fffe 	bl	0 <__aeabi_fmul>
    3a2e:	4601      	mov	r1, r0
    3a30:	4658      	mov	r0, fp
    3a32:	f7ff fffe 	bl	0 <__aeabi_fadd>
    3a36:	9935      	ldr	r1, [sp, #212]	; 0xd4
    3a38:	4683      	mov	fp, r0
    3a3a:	f8d8 0030 	ldr.w	r0, [r8, #48]	; 0x30
    3a3e:	f7ff fffe 	bl	0 <__aeabi_fmul>
    3a42:	4601      	mov	r1, r0
    3a44:	4658      	mov	r0, fp
    3a46:	f7ff fffe 	bl	0 <__aeabi_fadd>
    3a4a:	4601      	mov	r1, r0
    3a4c:	4620      	mov	r0, r4
    3a4e:	f7ff fffe 	bl	0 <__aeabi_fmul>
    3a52:	4601      	mov	r1, r0
    3a54:	9801      	ldr	r0, [sp, #4]
    3a56:	f7ff fffe 	bl	0 <__aeabi_fadd>
    3a5a:	f509 7c9c 	add.w	ip, r9, #312	; 0x138
    3a5e:	4601      	mov	r1, r0
    3a60:	983f      	ldr	r0, [sp, #252]	; 0xfc
    3a62:	f8cd c194 	str.w	ip, [sp, #404]	; 0x194
    3a66:	f7ff fffe 	bl	0 <__aeabi_fadd>
    3a6a:	9a3e      	ldr	r2, [sp, #248]	; 0xf8
    3a6c:	9965      	ldr	r1, [sp, #404]	; 0x194
    3a6e:	6048      	str	r0, [r1, #4]
    3a70:	6190      	str	r0, [r2, #24]
    3a72:	69bb      	ldr	r3, [r7, #24]
    3a74:	9847      	ldr	r0, [sp, #284]	; 0x11c
    3a76:	4619      	mov	r1, r3
    3a78:	9303      	str	r3, [sp, #12]
    3a7a:	f7ff fffe 	bl	0 <__aeabi_fmul>
    3a7e:	6a39      	ldr	r1, [r7, #32]
    3a80:	4683      	mov	fp, r0
    3a82:	985f      	ldr	r0, [sp, #380]	; 0x17c
    3a84:	f7ff fffe 	bl	0 <__aeabi_fmul>
    3a88:	4601      	mov	r1, r0
    3a8a:	4658      	mov	r0, fp
    3a8c:	f7ff fffe 	bl	0 <__aeabi_fadd>
    3a90:	6a79      	ldr	r1, [r7, #36]	; 0x24
    3a92:	4683      	mov	fp, r0
    3a94:	984c      	ldr	r0, [sp, #304]	; 0x130
    3a96:	f7ff fffe 	bl	0 <__aeabi_fmul>
    3a9a:	4601      	mov	r1, r0
    3a9c:	4658      	mov	r0, fp
    3a9e:	f7ff fffe 	bl	0 <__aeabi_fadd>
    3aa2:	6ab9      	ldr	r1, [r7, #40]	; 0x28
    3aa4:	4683      	mov	fp, r0
    3aa6:	9854      	ldr	r0, [sp, #336]	; 0x150
    3aa8:	f7ff fffe 	bl	0 <__aeabi_fmul>
    3aac:	4601      	mov	r1, r0
    3aae:	4658      	mov	r0, fp
    3ab0:	f7ff fffe 	bl	0 <__aeabi_fadd>
    3ab4:	6af9      	ldr	r1, [r7, #44]	; 0x2c
    3ab6:	4683      	mov	fp, r0
    3ab8:	9858      	ldr	r0, [sp, #352]	; 0x160
    3aba:	f7ff fffe 	bl	0 <__aeabi_fmul>
    3abe:	4601      	mov	r1, r0
    3ac0:	4658      	mov	r0, fp
    3ac2:	f7ff fffe 	bl	0 <__aeabi_fadd>
    3ac6:	6b39      	ldr	r1, [r7, #48]	; 0x30
    3ac8:	4683      	mov	fp, r0
    3aca:	9855      	ldr	r0, [sp, #340]	; 0x154
    3acc:	f7ff fffe 	bl	0 <__aeabi_fmul>
    3ad0:	4601      	mov	r1, r0
    3ad2:	4658      	mov	r0, fp
    3ad4:	f7ff fffe 	bl	0 <__aeabi_fadd>
    3ad8:	9939      	ldr	r1, [sp, #228]	; 0xe4
    3ada:	f7ff fffe 	bl	0 <__aeabi_fmul>
    3ade:	9903      	ldr	r1, [sp, #12]
    3ae0:	4602      	mov	r2, r0
    3ae2:	983f      	ldr	r0, [sp, #252]	; 0xfc
    3ae4:	9201      	str	r2, [sp, #4]
    3ae6:	f7ff fffe 	bl	0 <__aeabi_fmul>
    3aea:	4601      	mov	r1, r0
    3aec:	9851      	ldr	r0, [sp, #324]	; 0x144
    3aee:	f7ff fffe 	bl	0 <__aeabi_fadd>
    3af2:	6a39      	ldr	r1, [r7, #32]
    3af4:	4683      	mov	fp, r0
    3af6:	983d      	ldr	r0, [sp, #244]	; 0xf4
    3af8:	f7ff fffe 	bl	0 <__aeabi_fmul>
    3afc:	4601      	mov	r1, r0
    3afe:	4658      	mov	r0, fp
    3b00:	f7ff fffe 	bl	0 <__aeabi_fadd>
    3b04:	6a79      	ldr	r1, [r7, #36]	; 0x24
    3b06:	4683      	mov	fp, r0
    3b08:	9837      	ldr	r0, [sp, #220]	; 0xdc
    3b0a:	f7ff fffe 	bl	0 <__aeabi_fmul>
    3b0e:	4601      	mov	r1, r0
    3b10:	4658      	mov	r0, fp
    3b12:	f7ff fffe 	bl	0 <__aeabi_fadd>
    3b16:	6ab9      	ldr	r1, [r7, #40]	; 0x28
    3b18:	4683      	mov	fp, r0
    3b1a:	9830      	ldr	r0, [sp, #192]	; 0xc0
    3b1c:	f7ff fffe 	bl	0 <__aeabi_fmul>
    3b20:	4601      	mov	r1, r0
    3b22:	4658      	mov	r0, fp
    3b24:	f7ff fffe 	bl	0 <__aeabi_fadd>
    3b28:	6af9      	ldr	r1, [r7, #44]	; 0x2c
    3b2a:	4683      	mov	fp, r0
    3b2c:	9836      	ldr	r0, [sp, #216]	; 0xd8
    3b2e:	f7ff fffe 	bl	0 <__aeabi_fmul>
    3b32:	4601      	mov	r1, r0
    3b34:	4658      	mov	r0, fp
    3b36:	f7ff fffe 	bl	0 <__aeabi_fadd>
    3b3a:	6b39      	ldr	r1, [r7, #48]	; 0x30
    3b3c:	4683      	mov	fp, r0
    3b3e:	9835      	ldr	r0, [sp, #212]	; 0xd4
    3b40:	f7ff fffe 	bl	0 <__aeabi_fmul>
    3b44:	4601      	mov	r1, r0
    3b46:	4658      	mov	r0, fp
    3b48:	f7ff fffe 	bl	0 <__aeabi_fadd>
    3b4c:	4601      	mov	r1, r0
    3b4e:	4620      	mov	r0, r4
    3b50:	f7ff fffe 	bl	0 <__aeabi_fmul>
    3b54:	4601      	mov	r1, r0
    3b56:	9801      	ldr	r0, [sp, #4]
    3b58:	f7ff fffe 	bl	0 <__aeabi_fadd>
    3b5c:	f509 73b6 	add.w	r3, r9, #364	; 0x16c
    3b60:	4601      	mov	r1, r0
    3b62:	9842      	ldr	r0, [sp, #264]	; 0x108
    3b64:	9373      	str	r3, [sp, #460]	; 0x1cc
    3b66:	f7ff fffe 	bl	0 <__aeabi_fadd>
    3b6a:	f8dd e1cc 	ldr.w	lr, [sp, #460]	; 0x1cc
    3b6e:	9a3e      	ldr	r2, [sp, #248]	; 0xf8
    3b70:	f8ce 0004 	str.w	r0, [lr, #4]
    3b74:	61d0      	str	r0, [r2, #28]
    3b76:	69b3      	ldr	r3, [r6, #24]
    3b78:	9847      	ldr	r0, [sp, #284]	; 0x11c
    3b7a:	4619      	mov	r1, r3
    3b7c:	9303      	str	r3, [sp, #12]
    3b7e:	f7ff fffe 	bl	0 <__aeabi_fmul>
    3b82:	69f1      	ldr	r1, [r6, #28]
    3b84:	4683      	mov	fp, r0
    3b86:	9851      	ldr	r0, [sp, #324]	; 0x144
    3b88:	f7ff fffe 	bl	0 <__aeabi_fmul>
    3b8c:	4601      	mov	r1, r0
    3b8e:	4658      	mov	r0, fp
    3b90:	f7ff fffe 	bl	0 <__aeabi_fadd>
    3b94:	6a71      	ldr	r1, [r6, #36]	; 0x24
    3b96:	4683      	mov	fp, r0
    3b98:	984c      	ldr	r0, [sp, #304]	; 0x130
    3b9a:	f7ff fffe 	bl	0 <__aeabi_fmul>
    3b9e:	4601      	mov	r1, r0
    3ba0:	4658      	mov	r0, fp
    3ba2:	f7ff fffe 	bl	0 <__aeabi_fadd>
    3ba6:	6ab1      	ldr	r1, [r6, #40]	; 0x28
    3ba8:	4683      	mov	fp, r0
    3baa:	9854      	ldr	r0, [sp, #336]	; 0x150
    3bac:	f7ff fffe 	bl	0 <__aeabi_fmul>
    3bb0:	4601      	mov	r1, r0
    3bb2:	4658      	mov	r0, fp
    3bb4:	f7ff fffe 	bl	0 <__aeabi_fadd>
    3bb8:	6af1      	ldr	r1, [r6, #44]	; 0x2c
    3bba:	4683      	mov	fp, r0
    3bbc:	9858      	ldr	r0, [sp, #352]	; 0x160
    3bbe:	f7ff fffe 	bl	0 <__aeabi_fmul>
    3bc2:	4601      	mov	r1, r0
    3bc4:	4658      	mov	r0, fp
    3bc6:	f7ff fffe 	bl	0 <__aeabi_fadd>
    3bca:	6b31      	ldr	r1, [r6, #48]	; 0x30
    3bcc:	4683      	mov	fp, r0
    3bce:	9855      	ldr	r0, [sp, #340]	; 0x154
    3bd0:	f7ff fffe 	bl	0 <__aeabi_fmul>
    3bd4:	4601      	mov	r1, r0
    3bd6:	4658      	mov	r0, fp
    3bd8:	f7ff fffe 	bl	0 <__aeabi_fadd>
    3bdc:	9939      	ldr	r1, [sp, #228]	; 0xe4
    3bde:	f7ff fffe 	bl	0 <__aeabi_fmul>
    3be2:	9903      	ldr	r1, [sp, #12]
    3be4:	4602      	mov	r2, r0
    3be6:	983f      	ldr	r0, [sp, #252]	; 0xfc
    3be8:	9201      	str	r2, [sp, #4]
    3bea:	f7ff fffe 	bl	0 <__aeabi_fmul>
    3bee:	4601      	mov	r1, r0
    3bf0:	985f      	ldr	r0, [sp, #380]	; 0x17c
    3bf2:	f7ff fffe 	bl	0 <__aeabi_fadd>
    3bf6:	69f1      	ldr	r1, [r6, #28]
    3bf8:	4683      	mov	fp, r0
    3bfa:	9842      	ldr	r0, [sp, #264]	; 0x108
    3bfc:	f7ff fffe 	bl	0 <__aeabi_fmul>
    3c00:	4601      	mov	r1, r0
    3c02:	4658      	mov	r0, fp
    3c04:	f7ff fffe 	bl	0 <__aeabi_fadd>
    3c08:	6a71      	ldr	r1, [r6, #36]	; 0x24
    3c0a:	4683      	mov	fp, r0
    3c0c:	9837      	ldr	r0, [sp, #220]	; 0xdc
    3c0e:	f7ff fffe 	bl	0 <__aeabi_fmul>
    3c12:	4601      	mov	r1, r0
    3c14:	4658      	mov	r0, fp
    3c16:	f7ff fffe 	bl	0 <__aeabi_fadd>
    3c1a:	6ab1      	ldr	r1, [r6, #40]	; 0x28
    3c1c:	4683      	mov	fp, r0
    3c1e:	9830      	ldr	r0, [sp, #192]	; 0xc0
    3c20:	f7ff fffe 	bl	0 <__aeabi_fmul>
    3c24:	4601      	mov	r1, r0
    3c26:	4658      	mov	r0, fp
    3c28:	f7ff fffe 	bl	0 <__aeabi_fadd>
    3c2c:	6af1      	ldr	r1, [r6, #44]	; 0x2c
    3c2e:	4683      	mov	fp, r0
    3c30:	9836      	ldr	r0, [sp, #216]	; 0xd8
    3c32:	f7ff fffe 	bl	0 <__aeabi_fmul>
    3c36:	4601      	mov	r1, r0
    3c38:	4658      	mov	r0, fp
    3c3a:	f7ff fffe 	bl	0 <__aeabi_fadd>
    3c3e:	6b31      	ldr	r1, [r6, #48]	; 0x30
    3c40:	4683      	mov	fp, r0
    3c42:	9835      	ldr	r0, [sp, #212]	; 0xd4
    3c44:	f7ff fffe 	bl	0 <__aeabi_fmul>
    3c48:	4601      	mov	r1, r0
    3c4a:	4658      	mov	r0, fp
    3c4c:	f7ff fffe 	bl	0 <__aeabi_fadd>
    3c50:	4601      	mov	r1, r0
    3c52:	4620      	mov	r0, r4
    3c54:	f7ff fffe 	bl	0 <__aeabi_fmul>
    3c58:	4601      	mov	r1, r0
    3c5a:	9801      	ldr	r0, [sp, #4]
    3c5c:	f7ff fffe 	bl	0 <__aeabi_fadd>
    3c60:	f509 73d0 	add.w	r3, r9, #416	; 0x1a0
    3c64:	4601      	mov	r1, r0
    3c66:	983d      	ldr	r0, [sp, #244]	; 0xf4
    3c68:	9379      	str	r3, [sp, #484]	; 0x1e4
    3c6a:	f7ff fffe 	bl	0 <__aeabi_fadd>
    3c6e:	f8dd c0f8 	ldr.w	ip, [sp, #248]	; 0xf8
    3c72:	9a79      	ldr	r2, [sp, #484]	; 0x1e4
    3c74:	6050      	str	r0, [r2, #4]
    3c76:	f8cc 0020 	str.w	r0, [ip, #32]
    3c7a:	69ab      	ldr	r3, [r5, #24]
    3c7c:	9847      	ldr	r0, [sp, #284]	; 0x11c
    3c7e:	4619      	mov	r1, r3
    3c80:	9303      	str	r3, [sp, #12]
    3c82:	f7ff fffe 	bl	0 <__aeabi_fmul>
    3c86:	69e9      	ldr	r1, [r5, #28]
    3c88:	4683      	mov	fp, r0
    3c8a:	9851      	ldr	r0, [sp, #324]	; 0x144
    3c8c:	f7ff fffe 	bl	0 <__aeabi_fmul>
    3c90:	4601      	mov	r1, r0
    3c92:	4658      	mov	r0, fp
    3c94:	f7ff fffe 	bl	0 <__aeabi_fadd>
    3c98:	6a29      	ldr	r1, [r5, #32]
    3c9a:	4683      	mov	fp, r0
    3c9c:	985f      	ldr	r0, [sp, #380]	; 0x17c
    3c9e:	f7ff fffe 	bl	0 <__aeabi_fmul>
    3ca2:	4601      	mov	r1, r0
    3ca4:	4658      	mov	r0, fp
    3ca6:	f7ff fffe 	bl	0 <__aeabi_fadd>
    3caa:	6aa9      	ldr	r1, [r5, #40]	; 0x28
    3cac:	4683      	mov	fp, r0
    3cae:	9854      	ldr	r0, [sp, #336]	; 0x150
    3cb0:	f7ff fffe 	bl	0 <__aeabi_fmul>
    3cb4:	4601      	mov	r1, r0
    3cb6:	4658      	mov	r0, fp
    3cb8:	f7ff fffe 	bl	0 <__aeabi_fadd>
    3cbc:	6ae9      	ldr	r1, [r5, #44]	; 0x2c
    3cbe:	4683      	mov	fp, r0
    3cc0:	9858      	ldr	r0, [sp, #352]	; 0x160
    3cc2:	f7ff fffe 	bl	0 <__aeabi_fmul>
    3cc6:	4601      	mov	r1, r0
    3cc8:	4658      	mov	r0, fp
    3cca:	f7ff fffe 	bl	0 <__aeabi_fadd>
    3cce:	6b29      	ldr	r1, [r5, #48]	; 0x30
    3cd0:	4683      	mov	fp, r0
    3cd2:	9855      	ldr	r0, [sp, #340]	; 0x154
    3cd4:	f7ff fffe 	bl	0 <__aeabi_fmul>
    3cd8:	4601      	mov	r1, r0
    3cda:	4658      	mov	r0, fp
    3cdc:	f7ff fffe 	bl	0 <__aeabi_fadd>
    3ce0:	9939      	ldr	r1, [sp, #228]	; 0xe4
    3ce2:	f7ff fffe 	bl	0 <__aeabi_fmul>
    3ce6:	9903      	ldr	r1, [sp, #12]
    3ce8:	4602      	mov	r2, r0
    3cea:	983f      	ldr	r0, [sp, #252]	; 0xfc
    3cec:	9201      	str	r2, [sp, #4]
    3cee:	f7ff fffe 	bl	0 <__aeabi_fmul>
    3cf2:	4601      	mov	r1, r0
    3cf4:	984c      	ldr	r0, [sp, #304]	; 0x130
    3cf6:	f7ff fffe 	bl	0 <__aeabi_fadd>
    3cfa:	69e9      	ldr	r1, [r5, #28]
    3cfc:	4683      	mov	fp, r0
    3cfe:	9842      	ldr	r0, [sp, #264]	; 0x108
    3d00:	f7ff fffe 	bl	0 <__aeabi_fmul>
    3d04:	4601      	mov	r1, r0
    3d06:	4658      	mov	r0, fp
    3d08:	f7ff fffe 	bl	0 <__aeabi_fadd>
    3d0c:	6a29      	ldr	r1, [r5, #32]
    3d0e:	4683      	mov	fp, r0
    3d10:	983d      	ldr	r0, [sp, #244]	; 0xf4
    3d12:	f7ff fffe 	bl	0 <__aeabi_fmul>
    3d16:	4601      	mov	r1, r0
    3d18:	4658      	mov	r0, fp
    3d1a:	f7ff fffe 	bl	0 <__aeabi_fadd>
    3d1e:	6aa9      	ldr	r1, [r5, #40]	; 0x28
    3d20:	4683      	mov	fp, r0
    3d22:	9830      	ldr	r0, [sp, #192]	; 0xc0
    3d24:	f7ff fffe 	bl	0 <__aeabi_fmul>
    3d28:	4601      	mov	r1, r0
    3d2a:	4658      	mov	r0, fp
    3d2c:	f7ff fffe 	bl	0 <__aeabi_fadd>
    3d30:	6ae9      	ldr	r1, [r5, #44]	; 0x2c
    3d32:	4683      	mov	fp, r0
    3d34:	9836      	ldr	r0, [sp, #216]	; 0xd8
    3d36:	f7ff fffe 	bl	0 <__aeabi_fmul>
    3d3a:	4601      	mov	r1, r0
    3d3c:	4658      	mov	r0, fp
    3d3e:	f7ff fffe 	bl	0 <__aeabi_fadd>
    3d42:	6b29      	ldr	r1, [r5, #48]	; 0x30
    3d44:	4683      	mov	fp, r0
    3d46:	9835      	ldr	r0, [sp, #212]	; 0xd4
    3d48:	f7ff fffe 	bl	0 <__aeabi_fmul>
    3d4c:	4601      	mov	r1, r0
    3d4e:	4658      	mov	r0, fp
    3d50:	f7ff fffe 	bl	0 <__aeabi_fadd>
    3d54:	4601      	mov	r1, r0
    3d56:	4620      	mov	r0, r4
    3d58:	f7ff fffe 	bl	0 <__aeabi_fmul>
    3d5c:	4601      	mov	r1, r0
    3d5e:	9801      	ldr	r0, [sp, #4]
    3d60:	f7ff fffe 	bl	0 <__aeabi_fadd>
    3d64:	f509 73ea 	add.w	r3, r9, #468	; 0x1d4
    3d68:	4601      	mov	r1, r0
    3d6a:	9837      	ldr	r0, [sp, #220]	; 0xdc
    3d6c:	937a      	str	r3, [sp, #488]	; 0x1e8
    3d6e:	f7ff fffe 	bl	0 <__aeabi_fadd>
    3d72:	f8dd e1e8 	ldr.w	lr, [sp, #488]	; 0x1e8
    3d76:	9a3e      	ldr	r2, [sp, #248]	; 0xf8
    3d78:	4601      	mov	r1, r0
    3d7a:	f8ce 0004 	str.w	r0, [lr, #4]
    3d7e:	6251      	str	r1, [r2, #36]	; 0x24
    3d80:	4620      	mov	r0, r4
    3d82:	9954      	ldr	r1, [sp, #336]	; 0x150
    3d84:	f7ff fffe 	bl	0 <__aeabi_fmul>
    3d88:	f509 7302 	add.w	r3, r9, #520	; 0x208
    3d8c:	4601      	mov	r1, r0
    3d8e:	9830      	ldr	r0, [sp, #192]	; 0xc0
    3d90:	937b      	str	r3, [sp, #492]	; 0x1ec
    3d92:	f7ff fffe 	bl	0 <__aeabi_fadd>
    3d96:	f8dd c1ec 	ldr.w	ip, [sp, #492]	; 0x1ec
    3d9a:	993e      	ldr	r1, [sp, #248]	; 0xf8
    3d9c:	4683      	mov	fp, r0
    3d9e:	f8cc 0004 	str.w	r0, [ip, #4]
    3da2:	f8c1 b028 	str.w	fp, [r1, #40]	; 0x28
    3da6:	4620      	mov	r0, r4
    3da8:	9958      	ldr	r1, [sp, #352]	; 0x160
    3daa:	f7ff fffe 	bl	0 <__aeabi_fmul>
    3dae:	f509 720f 	add.w	r2, r9, #572	; 0x23c
    3db2:	4601      	mov	r1, r0
    3db4:	9836      	ldr	r0, [sp, #216]	; 0xd8
    3db6:	927c      	str	r2, [sp, #496]	; 0x1f0
    3db8:	f7ff fffe 	bl	0 <__aeabi_fadd>
    3dbc:	f8dd e1f0 	ldr.w	lr, [sp, #496]	; 0x1f0
    3dc0:	9a3e      	ldr	r2, [sp, #248]	; 0xf8
    3dc2:	4603      	mov	r3, r0
    3dc4:	f8ce 0004 	str.w	r0, [lr, #4]
    3dc8:	9955      	ldr	r1, [sp, #340]	; 0x154
    3dca:	62d3      	str	r3, [r2, #44]	; 0x2c
    3dcc:	4620      	mov	r0, r4
    3dce:	f7ff fffe 	bl	0 <__aeabi_fmul>
    3dd2:	4601      	mov	r1, r0
    3dd4:	9835      	ldr	r0, [sp, #212]	; 0xd4
    3dd6:	f7ff fffe 	bl	0 <__aeabi_fadd>
    3dda:	f8da 1118 	ldr.w	r1, [sl, #280]	; 0x118
    3dde:	f8dd c0f8 	ldr.w	ip, [sp, #248]	; 0xf8
    3de2:	f8da 207c 	ldr.w	r2, [sl, #124]	; 0x7c
    3de6:	917e      	str	r1, [sp, #504]	; 0x1f8
    3de8:	4683      	mov	fp, r0
    3dea:	f509 791c 	add.w	r9, r9, #624	; 0x270
    3dee:	f8cd 91f4 	str.w	r9, [sp, #500]	; 0x1f4
    3df2:	9939      	ldr	r1, [sp, #228]	; 0xe4
    3df4:	f8c9 0004 	str.w	r0, [r9, #4]
    3df8:	987e      	ldr	r0, [sp, #504]	; 0x1f8
    3dfa:	f8cc b030 	str.w	fp, [ip, #48]	; 0x30
    3dfe:	9201      	str	r2, [sp, #4]
    3e00:	f7ff fffe 	bl	0 <__aeabi_fmul>
    3e04:	9a01      	ldr	r2, [sp, #4]
    3e06:	4681      	mov	r9, r0
    3e08:	4611      	mov	r1, r2
    3e0a:	4610      	mov	r0, r2
    3e0c:	f7ff fffe 	bl	0 <__aeabi_fadd>
    3e10:	4601      	mov	r1, r0
    3e12:	4620      	mov	r0, r4
    3e14:	f7ff fffe 	bl	0 <__aeabi_fmul>
    3e18:	4601      	mov	r1, r0
    3e1a:	4648      	mov	r0, r9
    3e1c:	f7ff fffe 	bl	0 <__aeabi_fadd>
    3e20:	f8da 1070 	ldr.w	r1, [sl, #112]	; 0x70
    3e24:	f7ff fffe 	bl	0 <__aeabi_fadd>
    3e28:	9b41      	ldr	r3, [sp, #260]	; 0x104
    3e2a:	6098      	str	r0, [r3, #8]
    3e2c:	f8da 211c 	ldr.w	r2, [sl, #284]	; 0x11c
    3e30:	925b      	str	r2, [sp, #364]	; 0x16c
    3e32:	f8dd e0cc 	ldr.w	lr, [sp, #204]	; 0xcc
    3e36:	f8da 1120 	ldr.w	r1, [sl, #288]	; 0x120
    3e3a:	f8de 9018 	ldr.w	r9, [lr, #24]
    3e3e:	f8de 001c 	ldr.w	r0, [lr, #28]
    3e42:	9152      	str	r1, [sp, #328]	; 0x148
    3e44:	9021      	str	r0, [sp, #132]	; 0x84
    3e46:	4611      	mov	r1, r2
    3e48:	4648      	mov	r0, r9
    3e4a:	f7ff fffe 	bl	0 <__aeabi_fmul>
    3e4e:	f8da c124 	ldr.w	ip, [sl, #292]	; 0x124
    3e52:	4683      	mov	fp, r0
    3e54:	9952      	ldr	r1, [sp, #328]	; 0x148
    3e56:	9821      	ldr	r0, [sp, #132]	; 0x84
    3e58:	f8cd c158 	str.w	ip, [sp, #344]	; 0x158
    3e5c:	f7ff fffe 	bl	0 <__aeabi_fmul>
    3e60:	f8dd e0cc 	ldr.w	lr, [sp, #204]	; 0xcc
    3e64:	4601      	mov	r1, r0
    3e66:	f8de 3020 	ldr.w	r3, [lr, #32]
    3e6a:	4658      	mov	r0, fp
    3e6c:	9320      	str	r3, [sp, #128]	; 0x80
    3e6e:	f7ff fffe 	bl	0 <__aeabi_fadd>
    3e72:	f8da 2128 	ldr.w	r2, [sl, #296]	; 0x128
    3e76:	4683      	mov	fp, r0
    3e78:	9956      	ldr	r1, [sp, #344]	; 0x158
    3e7a:	9820      	ldr	r0, [sp, #128]	; 0x80
    3e7c:	925c      	str	r2, [sp, #368]	; 0x170
    3e7e:	f7ff fffe 	bl	0 <__aeabi_fmul>
    3e82:	f8dd c0cc 	ldr.w	ip, [sp, #204]	; 0xcc
    3e86:	4601      	mov	r1, r0
    3e88:	f8dc e024 	ldr.w	lr, [ip, #36]	; 0x24
    3e8c:	4658      	mov	r0, fp
    3e8e:	f8cd e07c 	str.w	lr, [sp, #124]	; 0x7c
    3e92:	f7ff fffe 	bl	0 <__aeabi_fadd>
    3e96:	995c      	ldr	r1, [sp, #368]	; 0x170
    3e98:	4683      	mov	fp, r0
    3e9a:	981f      	ldr	r0, [sp, #124]	; 0x7c
    3e9c:	f7ff fffe 	bl	0 <__aeabi_fmul>
    3ea0:	4601      	mov	r1, r0
    3ea2:	4658      	mov	r0, fp
    3ea4:	f8da b080 	ldr.w	fp, [sl, #128]	; 0x80
    3ea8:	f8cd b0f8 	str.w	fp, [sp, #248]	; 0xf8
    3eac:	f7ff fffe 	bl	0 <__aeabi_fadd>
    3eb0:	9939      	ldr	r1, [sp, #228]	; 0xe4
    3eb2:	f7ff fffe 	bl	0 <__aeabi_fmul>
    3eb6:	f8da c084 	ldr.w	ip, [sl, #132]	; 0x84
    3eba:	4683      	mov	fp, r0
    3ebc:	993e      	ldr	r1, [sp, #248]	; 0xf8
    3ebe:	4648      	mov	r0, r9
    3ec0:	f8cd c0fc 	str.w	ip, [sp, #252]	; 0xfc
    3ec4:	f7ff fffe 	bl	0 <__aeabi_fmul>
    3ec8:	4601      	mov	r1, r0
    3eca:	9868      	ldr	r0, [sp, #416]	; 0x1a0
    3ecc:	f7ff fffe 	bl	0 <__aeabi_fadd>
    3ed0:	f8da 3088 	ldr.w	r3, [sl, #136]	; 0x88
    3ed4:	4681      	mov	r9, r0
    3ed6:	993f      	ldr	r1, [sp, #252]	; 0xfc
    3ed8:	9821      	ldr	r0, [sp, #132]	; 0x84
    3eda:	9342      	str	r3, [sp, #264]	; 0x108
    3edc:	f7ff fffe 	bl	0 <__aeabi_fmul>
    3ee0:	4601      	mov	r1, r0
    3ee2:	4648      	mov	r0, r9
    3ee4:	f7ff fffe 	bl	0 <__aeabi_fadd>
    3ee8:	f8da 208c 	ldr.w	r2, [sl, #140]	; 0x8c
    3eec:	9942      	ldr	r1, [sp, #264]	; 0x108
    3eee:	4681      	mov	r9, r0
    3ef0:	9820      	ldr	r0, [sp, #128]	; 0x80
    3ef2:	923d      	str	r2, [sp, #244]	; 0xf4
    3ef4:	f7ff fffe 	bl	0 <__aeabi_fmul>
    3ef8:	4601      	mov	r1, r0
    3efa:	4648      	mov	r0, r9
    3efc:	f7ff fffe 	bl	0 <__aeabi_fadd>
    3f00:	993d      	ldr	r1, [sp, #244]	; 0xf4
    3f02:	4682      	mov	sl, r0
    3f04:	981f      	ldr	r0, [sp, #124]	; 0x7c
    3f06:	f7ff fffe 	bl	0 <__aeabi_fmul>
    3f0a:	4601      	mov	r1, r0
    3f0c:	4650      	mov	r0, sl
    3f0e:	f7ff fffe 	bl	0 <__aeabi_fadd>
    3f12:	4601      	mov	r1, r0
    3f14:	4620      	mov	r0, r4
    3f16:	f7ff fffe 	bl	0 <__aeabi_fmul>
    3f1a:	4601      	mov	r1, r0
    3f1c:	4658      	mov	r0, fp
    3f1e:	f7ff fffe 	bl	0 <__aeabi_fadd>
    3f22:	4601      	mov	r1, r0
    3f24:	984e      	ldr	r0, [sp, #312]	; 0x138
    3f26:	f7ff fffe 	bl	0 <__aeabi_fadd>
    3f2a:	f8dd 912c 	ldr.w	r9, [sp, #300]	; 0x12c
    3f2e:	9941      	ldr	r1, [sp, #260]	; 0x104
    3f30:	f8c9 0008 	str.w	r0, [r9, #8]
    3f34:	60c8      	str	r0, [r1, #12]
    3f36:	9834      	ldr	r0, [sp, #208]	; 0xd0
    3f38:	f8d0 a018 	ldr.w	sl, [r0, #24]
    3f3c:	f8d0 901c 	ldr.w	r9, [r0, #28]
    3f40:	4651      	mov	r1, sl
    3f42:	985b      	ldr	r0, [sp, #364]	; 0x16c
    3f44:	f7ff fffe 	bl	0 <__aeabi_fmul>
    3f48:	4649      	mov	r1, r9
    3f4a:	4683      	mov	fp, r0
    3f4c:	9852      	ldr	r0, [sp, #328]	; 0x148
    3f4e:	f7ff fffe 	bl	0 <__aeabi_fmul>
    3f52:	f8dd e0d0 	ldr.w	lr, [sp, #208]	; 0xd0
    3f56:	4601      	mov	r1, r0
    3f58:	f8de c020 	ldr.w	ip, [lr, #32]
    3f5c:	4658      	mov	r0, fp
    3f5e:	f8cd c078 	str.w	ip, [sp, #120]	; 0x78
    3f62:	f7ff fffe 	bl	0 <__aeabi_fadd>
    3f66:	991e      	ldr	r1, [sp, #120]	; 0x78
    3f68:	4683      	mov	fp, r0
    3f6a:	9856      	ldr	r0, [sp, #344]	; 0x158
    3f6c:	f7ff fffe 	bl	0 <__aeabi_fmul>
    3f70:	9b34      	ldr	r3, [sp, #208]	; 0xd0
    3f72:	4601      	mov	r1, r0
    3f74:	6a5a      	ldr	r2, [r3, #36]	; 0x24
    3f76:	4658      	mov	r0, fp
    3f78:	921d      	str	r2, [sp, #116]	; 0x74
    3f7a:	f7ff fffe 	bl	0 <__aeabi_fadd>
    3f7e:	991d      	ldr	r1, [sp, #116]	; 0x74
    3f80:	4683      	mov	fp, r0
    3f82:	985c      	ldr	r0, [sp, #368]	; 0x170
    3f84:	f7ff fffe 	bl	0 <__aeabi_fmul>
    3f88:	4601      	mov	r1, r0
    3f8a:	4658      	mov	r0, fp
    3f8c:	f7ff fffe 	bl	0 <__aeabi_fadd>
    3f90:	9939      	ldr	r1, [sp, #228]	; 0xe4
    3f92:	f7ff fffe 	bl	0 <__aeabi_fmul>
    3f96:	4651      	mov	r1, sl
    3f98:	4683      	mov	fp, r0
    3f9a:	983e      	ldr	r0, [sp, #248]	; 0xf8
    3f9c:	f7ff fffe 	bl	0 <__aeabi_fmul>
    3fa0:	4601      	mov	r1, r0
    3fa2:	9869      	ldr	r0, [sp, #420]	; 0x1a4
    3fa4:	f7ff fffe 	bl	0 <__aeabi_fadd>
    3fa8:	4649      	mov	r1, r9
    3faa:	4682      	mov	sl, r0
    3fac:	983f      	ldr	r0, [sp, #252]	; 0xfc
    3fae:	f7ff fffe 	bl	0 <__aeabi_fmul>
    3fb2:	4601      	mov	r1, r0
    3fb4:	4650      	mov	r0, sl
    3fb6:	f7ff fffe 	bl	0 <__aeabi_fadd>
    3fba:	991e      	ldr	r1, [sp, #120]	; 0x78
    3fbc:	4681      	mov	r9, r0
    3fbe:	9842      	ldr	r0, [sp, #264]	; 0x108
    3fc0:	f7ff fffe 	bl	0 <__aeabi_fmul>
    3fc4:	4601      	mov	r1, r0
    3fc6:	4648      	mov	r0, r9
    3fc8:	f7ff fffe 	bl	0 <__aeabi_fadd>
    3fcc:	991d      	ldr	r1, [sp, #116]	; 0x74
    3fce:	4682      	mov	sl, r0
    3fd0:	983d      	ldr	r0, [sp, #244]	; 0xf4
    3fd2:	f7ff fffe 	bl	0 <__aeabi_fmul>
    3fd6:	4601      	mov	r1, r0
    3fd8:	4650      	mov	r0, sl
    3fda:	f7ff fffe 	bl	0 <__aeabi_fadd>
    3fde:	4601      	mov	r1, r0
    3fe0:	4620      	mov	r0, r4
    3fe2:	f7ff fffe 	bl	0 <__aeabi_fmul>
    3fe6:	4601      	mov	r1, r0
    3fe8:	4658      	mov	r0, fp
    3fea:	f7ff fffe 	bl	0 <__aeabi_fadd>
    3fee:	4601      	mov	r1, r0
    3ff0:	9843      	ldr	r0, [sp, #268]	; 0x10c
    3ff2:	f7ff fffe 	bl	0 <__aeabi_fadd>
    3ff6:	f8dd 9118 	ldr.w	r9, [sp, #280]	; 0x118
    3ffa:	f8c9 0008 	str.w	r0, [r9, #8]
    3ffe:	9b41      	ldr	r3, [sp, #260]	; 0x104
    4000:	9940      	ldr	r1, [sp, #256]	; 0x100
    4002:	6118      	str	r0, [r3, #16]
    4004:	f8d1 a018 	ldr.w	sl, [r1, #24]
    4008:	f8d1 901c 	ldr.w	r9, [r1, #28]
    400c:	985b      	ldr	r0, [sp, #364]	; 0x16c
    400e:	4651      	mov	r1, sl
    4010:	f7ff fffe 	bl	0 <__aeabi_fmul>
    4014:	4649      	mov	r1, r9
    4016:	4683      	mov	fp, r0
    4018:	9852      	ldr	r0, [sp, #328]	; 0x148
    401a:	f7ff fffe 	bl	0 <__aeabi_fmul>
    401e:	f8dd e100 	ldr.w	lr, [sp, #256]	; 0x100
    4022:	4601      	mov	r1, r0
    4024:	f8de c020 	ldr.w	ip, [lr, #32]
    4028:	4658      	mov	r0, fp
    402a:	f8cd c070 	str.w	ip, [sp, #112]	; 0x70
    402e:	f7ff fffe 	bl	0 <__aeabi_fadd>
    4032:	991c      	ldr	r1, [sp, #112]	; 0x70
    4034:	4683      	mov	fp, r0
    4036:	9856      	ldr	r0, [sp, #344]	; 0x158
    4038:	f7ff fffe 	bl	0 <__aeabi_fmul>
    403c:	9a40      	ldr	r2, [sp, #256]	; 0x100
    403e:	4601      	mov	r1, r0
    4040:	6a53      	ldr	r3, [r2, #36]	; 0x24
    4042:	4658      	mov	r0, fp
    4044:	931b      	str	r3, [sp, #108]	; 0x6c
    4046:	f7ff fffe 	bl	0 <__aeabi_fadd>
    404a:	991b      	ldr	r1, [sp, #108]	; 0x6c
    404c:	4683      	mov	fp, r0
    404e:	985c      	ldr	r0, [sp, #368]	; 0x170
    4050:	f7ff fffe 	bl	0 <__aeabi_fmul>
    4054:	4601      	mov	r1, r0
    4056:	4658      	mov	r0, fp
    4058:	f7ff fffe 	bl	0 <__aeabi_fadd>
    405c:	9939      	ldr	r1, [sp, #228]	; 0xe4
    405e:	f7ff fffe 	bl	0 <__aeabi_fmul>
    4062:	4651      	mov	r1, sl
    4064:	4683      	mov	fp, r0
    4066:	983e      	ldr	r0, [sp, #248]	; 0xf8
    4068:	f7ff fffe 	bl	0 <__aeabi_fmul>
    406c:	4601      	mov	r1, r0
    406e:	987e      	ldr	r0, [sp, #504]	; 0x1f8
    4070:	f7ff fffe 	bl	0 <__aeabi_fadd>
    4074:	4649      	mov	r1, r9
    4076:	4682      	mov	sl, r0
    4078:	983f      	ldr	r0, [sp, #252]	; 0xfc
    407a:	f7ff fffe 	bl	0 <__aeabi_fmul>
    407e:	4601      	mov	r1, r0
    4080:	4650      	mov	r0, sl
    4082:	f7ff fffe 	bl	0 <__aeabi_fadd>
    4086:	991c      	ldr	r1, [sp, #112]	; 0x70
    4088:	4682      	mov	sl, r0
    408a:	9842      	ldr	r0, [sp, #264]	; 0x108
    408c:	f7ff fffe 	bl	0 <__aeabi_fmul>
    4090:	4601      	mov	r1, r0
    4092:	4650      	mov	r0, sl
    4094:	f7ff fffe 	bl	0 <__aeabi_fadd>
    4098:	991b      	ldr	r1, [sp, #108]	; 0x6c
    409a:	4681      	mov	r9, r0
    409c:	983d      	ldr	r0, [sp, #244]	; 0xf4
    409e:	f7ff fffe 	bl	0 <__aeabi_fmul>
    40a2:	4601      	mov	r1, r0
    40a4:	4648      	mov	r0, r9
    40a6:	f7ff fffe 	bl	0 <__aeabi_fadd>
    40aa:	4601      	mov	r1, r0
    40ac:	4620      	mov	r0, r4
    40ae:	f7ff fffe 	bl	0 <__aeabi_fmul>
    40b2:	4601      	mov	r1, r0
    40b4:	4658      	mov	r0, fp
    40b6:	f7ff fffe 	bl	0 <__aeabi_fadd>
    40ba:	4601      	mov	r1, r0
    40bc:	9801      	ldr	r0, [sp, #4]
    40be:	f7ff fffe 	bl	0 <__aeabi_fadd>
    40c2:	f8dd e15c 	ldr.w	lr, [sp, #348]	; 0x15c
    40c6:	f8ce 0008 	str.w	r0, [lr, #8]
    40ca:	9941      	ldr	r1, [sp, #260]	; 0x104
    40cc:	6148      	str	r0, [r1, #20]
    40ce:	f8d8 a01c 	ldr.w	sl, [r8, #28]
    40d2:	9852      	ldr	r0, [sp, #328]	; 0x148
    40d4:	4651      	mov	r1, sl
    40d6:	f7ff fffe 	bl	0 <__aeabi_fmul>
    40da:	f8d8 9020 	ldr.w	r9, [r8, #32]
    40de:	4683      	mov	fp, r0
    40e0:	4649      	mov	r1, r9
    40e2:	9856      	ldr	r0, [sp, #344]	; 0x158
    40e4:	f7ff fffe 	bl	0 <__aeabi_fmul>
    40e8:	4601      	mov	r1, r0
    40ea:	4658      	mov	r0, fp
    40ec:	f7ff fffe 	bl	0 <__aeabi_fadd>
    40f0:	9ada      	ldr	r2, [sp, #872]	; 0x368
    40f2:	f8d8 1024 	ldr.w	r1, [r8, #36]	; 0x24
    40f6:	4683      	mov	fp, r0
    40f8:	985c      	ldr	r0, [sp, #368]	; 0x170
    40fa:	925d      	str	r2, [sp, #372]	; 0x174
    40fc:	f7ff fffe 	bl	0 <__aeabi_fmul>
    4100:	4601      	mov	r1, r0
    4102:	4658      	mov	r0, fp
    4104:	f7ff fffe 	bl	0 <__aeabi_fadd>
    4108:	f8dd c36c 	ldr.w	ip, [sp, #876]	; 0x36c
    410c:	4683      	mov	fp, r0
    410e:	995d      	ldr	r1, [sp, #372]	; 0x174
    4110:	f8d8 0028 	ldr.w	r0, [r8, #40]	; 0x28
    4114:	f8cd c190 	str.w	ip, [sp, #400]	; 0x190
    4118:	f7ff fffe 	bl	0 <__aeabi_fmul>
    411c:	4601      	mov	r1, r0
    411e:	4658      	mov	r0, fp
    4120:	f7ff fffe 	bl	0 <__aeabi_fadd>
    4124:	9bdc      	ldr	r3, [sp, #880]	; 0x370
    4126:	4683      	mov	fp, r0
    4128:	9964      	ldr	r1, [sp, #400]	; 0x190
    412a:	f8d8 002c 	ldr.w	r0, [r8, #44]	; 0x2c
    412e:	936d      	str	r3, [sp, #436]	; 0x1b4
    4130:	f7ff fffe 	bl	0 <__aeabi_fmul>
    4134:	4601      	mov	r1, r0
    4136:	4658      	mov	r0, fp
    4138:	f7ff fffe 	bl	0 <__aeabi_fadd>
    413c:	996d      	ldr	r1, [sp, #436]	; 0x1b4
    413e:	4683      	mov	fp, r0
    4140:	f8d8 0030 	ldr.w	r0, [r8, #48]	; 0x30
    4144:	f7ff fffe 	bl	0 <__aeabi_fmul>
    4148:	4601      	mov	r1, r0
    414a:	4658      	mov	r0, fp
    414c:	f7ff fffe 	bl	0 <__aeabi_fadd>
    4150:	9939      	ldr	r1, [sp, #228]	; 0xe4
    4152:	f7ff fffe 	bl	0 <__aeabi_fmul>
    4156:	4651      	mov	r1, sl
    4158:	4683      	mov	fp, r0
    415a:	983f      	ldr	r0, [sp, #252]	; 0xfc
    415c:	f7ff fffe 	bl	0 <__aeabi_fmul>
    4160:	4601      	mov	r1, r0
    4162:	985b      	ldr	r0, [sp, #364]	; 0x16c
    4164:	f7ff fffe 	bl	0 <__aeabi_fadd>
    4168:	4649      	mov	r1, r9
    416a:	4682      	mov	sl, r0
    416c:	9842      	ldr	r0, [sp, #264]	; 0x108
    416e:	f7ff fffe 	bl	0 <__aeabi_fmul>
    4172:	4601      	mov	r1, r0
    4174:	4650      	mov	r0, sl
    4176:	f7ff fffe 	bl	0 <__aeabi_fadd>
    417a:	9ab3      	ldr	r2, [sp, #716]	; 0x2cc
    417c:	f8d8 1024 	ldr.w	r1, [r8, #36]	; 0x24
    4180:	4682      	mov	sl, r0
    4182:	983d      	ldr	r0, [sp, #244]	; 0xf4
    4184:	9237      	str	r2, [sp, #220]	; 0xdc
    4186:	f7ff fffe 	bl	0 <__aeabi_fmul>
    418a:	4601      	mov	r1, r0
    418c:	4650      	mov	r0, sl
    418e:	f7ff fffe 	bl	0 <__aeabi_fadd>
    4192:	f8dd c2d0 	ldr.w	ip, [sp, #720]	; 0x2d0
    4196:	9937      	ldr	r1, [sp, #220]	; 0xdc
    4198:	4681      	mov	r9, r0
    419a:	f8d8 0028 	ldr.w	r0, [r8, #40]	; 0x28
    419e:	f8cd c0c0 	str.w	ip, [sp, #192]	; 0xc0
    41a2:	f7ff fffe 	bl	0 <__aeabi_fmul>
    41a6:	4601      	mov	r1, r0
    41a8:	4648      	mov	r0, r9
    41aa:	f7ff fffe 	bl	0 <__aeabi_fadd>
    41ae:	f8dd e2d4 	ldr.w	lr, [sp, #724]	; 0x2d4
    41b2:	9930      	ldr	r1, [sp, #192]	; 0xc0
    41b4:	4682      	mov	sl, r0
    41b6:	f8d8 002c 	ldr.w	r0, [r8, #44]	; 0x2c
    41ba:	f8cd e0d8 	str.w	lr, [sp, #216]	; 0xd8
    41be:	f7ff fffe 	bl	0 <__aeabi_fmul>
    41c2:	4601      	mov	r1, r0
    41c4:	4650      	mov	r0, sl
    41c6:	f7ff fffe 	bl	0 <__aeabi_fadd>
    41ca:	9936      	ldr	r1, [sp, #216]	; 0xd8
    41cc:	4681      	mov	r9, r0
    41ce:	f8d8 0030 	ldr.w	r0, [r8, #48]	; 0x30
    41d2:	f7ff fffe 	bl	0 <__aeabi_fmul>
    41d6:	4601      	mov	r1, r0
    41d8:	4648      	mov	r0, r9
    41da:	f7ff fffe 	bl	0 <__aeabi_fadd>
    41de:	4601      	mov	r1, r0
    41e0:	4620      	mov	r0, r4
    41e2:	f7ff fffe 	bl	0 <__aeabi_fmul>
    41e6:	4601      	mov	r1, r0
    41e8:	4658      	mov	r0, fp
    41ea:	f7ff fffe 	bl	0 <__aeabi_fadd>
    41ee:	4601      	mov	r1, r0
    41f0:	983e      	ldr	r0, [sp, #248]	; 0xf8
    41f2:	f7ff fffe 	bl	0 <__aeabi_fadd>
    41f6:	9b65      	ldr	r3, [sp, #404]	; 0x194
    41f8:	9941      	ldr	r1, [sp, #260]	; 0x104
    41fa:	6098      	str	r0, [r3, #8]
    41fc:	6188      	str	r0, [r1, #24]
    41fe:	f8d7 a018 	ldr.w	sl, [r7, #24]
    4202:	985b      	ldr	r0, [sp, #364]	; 0x16c
    4204:	4651      	mov	r1, sl
    4206:	f7ff fffe 	bl	0 <__aeabi_fmul>
    420a:	f8d7 9020 	ldr.w	r9, [r7, #32]
    420e:	4683      	mov	fp, r0
    4210:	4649      	mov	r1, r9
    4212:	9856      	ldr	r0, [sp, #344]	; 0x158
    4214:	f7ff fffe 	bl	0 <__aeabi_fmul>
    4218:	4601      	mov	r1, r0
    421a:	4658      	mov	r0, fp
    421c:	f7ff fffe 	bl	0 <__aeabi_fadd>
    4220:	6a79      	ldr	r1, [r7, #36]	; 0x24
    4222:	4683      	mov	fp, r0
    4224:	985c      	ldr	r0, [sp, #368]	; 0x170
    4226:	f7ff fffe 	bl	0 <__aeabi_fmul>
    422a:	4601      	mov	r1, r0
    422c:	4658      	mov	r0, fp
    422e:	f7ff fffe 	bl	0 <__aeabi_fadd>
    4232:	6ab9      	ldr	r1, [r7, #40]	; 0x28
    4234:	4683      	mov	fp, r0
    4236:	985d      	ldr	r0, [sp, #372]	; 0x174
    4238:	f7ff fffe 	bl	0 <__aeabi_fmul>
    423c:	4601      	mov	r1, r0
    423e:	4658      	mov	r0, fp
    4240:	f7ff fffe 	bl	0 <__aeabi_fadd>
    4244:	6af9      	ldr	r1, [r7, #44]	; 0x2c
    4246:	4683      	mov	fp, r0
    4248:	9864      	ldr	r0, [sp, #400]	; 0x190
    424a:	f7ff fffe 	bl	0 <__aeabi_fmul>
    424e:	4601      	mov	r1, r0
    4250:	4658      	mov	r0, fp
    4252:	f7ff fffe 	bl	0 <__aeabi_fadd>
    4256:	6b39      	ldr	r1, [r7, #48]	; 0x30
    4258:	4683      	mov	fp, r0
    425a:	986d      	ldr	r0, [sp, #436]	; 0x1b4
    425c:	f7ff fffe 	bl	0 <__aeabi_fmul>
    4260:	4601      	mov	r1, r0
    4262:	4658      	mov	r0, fp
    4264:	f7ff fffe 	bl	0 <__aeabi_fadd>
    4268:	9939      	ldr	r1, [sp, #228]	; 0xe4
    426a:	f7ff fffe 	bl	0 <__aeabi_fmul>
    426e:	4651      	mov	r1, sl
    4270:	4683      	mov	fp, r0
    4272:	983e      	ldr	r0, [sp, #248]	; 0xf8
    4274:	f7ff fffe 	bl	0 <__aeabi_fmul>
    4278:	4601      	mov	r1, r0
    427a:	9852      	ldr	r0, [sp, #328]	; 0x148
    427c:	f7ff fffe 	bl	0 <__aeabi_fadd>
    4280:	4649      	mov	r1, r9
    4282:	4682      	mov	sl, r0
    4284:	9842      	ldr	r0, [sp, #264]	; 0x108
    4286:	f7ff fffe 	bl	0 <__aeabi_fmul>
    428a:	4601      	mov	r1, r0
    428c:	4650      	mov	r0, sl
    428e:	f7ff fffe 	bl	0 <__aeabi_fadd>
    4292:	6a79      	ldr	r1, [r7, #36]	; 0x24
    4294:	4682      	mov	sl, r0
    4296:	983d      	ldr	r0, [sp, #244]	; 0xf4
    4298:	f7ff fffe 	bl	0 <__aeabi_fmul>
    429c:	4601      	mov	r1, r0
    429e:	4650      	mov	r0, sl
    42a0:	f7ff fffe 	bl	0 <__aeabi_fadd>
    42a4:	6ab9      	ldr	r1, [r7, #40]	; 0x28
    42a6:	4681      	mov	r9, r0
    42a8:	9837      	ldr	r0, [sp, #220]	; 0xdc
    42aa:	f7ff fffe 	bl	0 <__aeabi_fmul>
    42ae:	4601      	mov	r1, r0
    42b0:	4648      	mov	r0, r9
    42b2:	f7ff fffe 	bl	0 <__aeabi_fadd>
    42b6:	6af9      	ldr	r1, [r7, #44]	; 0x2c
    42b8:	4682      	mov	sl, r0
    42ba:	9830      	ldr	r0, [sp, #192]	; 0xc0
    42bc:	f7ff fffe 	bl	0 <__aeabi_fmul>
    42c0:	4601      	mov	r1, r0
    42c2:	4650      	mov	r0, sl
    42c4:	f7ff fffe 	bl	0 <__aeabi_fadd>
    42c8:	6b39      	ldr	r1, [r7, #48]	; 0x30
    42ca:	4681      	mov	r9, r0
    42cc:	9836      	ldr	r0, [sp, #216]	; 0xd8
    42ce:	f7ff fffe 	bl	0 <__aeabi_fmul>
    42d2:	4601      	mov	r1, r0
    42d4:	4648      	mov	r0, r9
    42d6:	f7ff fffe 	bl	0 <__aeabi_fadd>
    42da:	4601      	mov	r1, r0
    42dc:	4620      	mov	r0, r4
    42de:	f7ff fffe 	bl	0 <__aeabi_fmul>
    42e2:	4601      	mov	r1, r0
    42e4:	4658      	mov	r0, fp
    42e6:	f7ff fffe 	bl	0 <__aeabi_fadd>
    42ea:	4601      	mov	r1, r0
    42ec:	983f      	ldr	r0, [sp, #252]	; 0xfc
    42ee:	f7ff fffe 	bl	0 <__aeabi_fadd>
    42f2:	9a73      	ldr	r2, [sp, #460]	; 0x1cc
    42f4:	6090      	str	r0, [r2, #8]
    42f6:	f8dd c104 	ldr.w	ip, [sp, #260]	; 0x104
    42fa:	f8cc 001c 	str.w	r0, [ip, #28]
    42fe:	f8d6 a018 	ldr.w	sl, [r6, #24]
    4302:	985b      	ldr	r0, [sp, #364]	; 0x16c
    4304:	4651      	mov	r1, sl
    4306:	f7ff fffe 	bl	0 <__aeabi_fmul>
    430a:	f8d6 901c 	ldr.w	r9, [r6, #28]
    430e:	4683      	mov	fp, r0
    4310:	4649      	mov	r1, r9
    4312:	9852      	ldr	r0, [sp, #328]	; 0x148
    4314:	f7ff fffe 	bl	0 <__aeabi_fmul>
    4318:	4601      	mov	r1, r0
    431a:	4658      	mov	r0, fp
    431c:	f7ff fffe 	bl	0 <__aeabi_fadd>
    4320:	6a71      	ldr	r1, [r6, #36]	; 0x24
    4322:	4683      	mov	fp, r0
    4324:	985c      	ldr	r0, [sp, #368]	; 0x170
    4326:	f7ff fffe 	bl	0 <__aeabi_fmul>
    432a:	4601      	mov	r1, r0
    432c:	4658      	mov	r0, fp
    432e:	f7ff fffe 	bl	0 <__aeabi_fadd>
    4332:	6ab1      	ldr	r1, [r6, #40]	; 0x28
    4334:	4683      	mov	fp, r0
    4336:	985d      	ldr	r0, [sp, #372]	; 0x174
    4338:	f7ff fffe 	bl	0 <__aeabi_fmul>
    433c:	4601      	mov	r1, r0
    433e:	4658      	mov	r0, fp
    4340:	f7ff fffe 	bl	0 <__aeabi_fadd>
    4344:	6af1      	ldr	r1, [r6, #44]	; 0x2c
    4346:	4683      	mov	fp, r0
    4348:	9864      	ldr	r0, [sp, #400]	; 0x190
    434a:	f7ff fffe 	bl	0 <__aeabi_fmul>
    434e:	4601      	mov	r1, r0
    4350:	4658      	mov	r0, fp
    4352:	f7ff fffe 	bl	0 <__aeabi_fadd>
    4356:	6b31      	ldr	r1, [r6, #48]	; 0x30
    4358:	4683      	mov	fp, r0
    435a:	986d      	ldr	r0, [sp, #436]	; 0x1b4
    435c:	f7ff fffe 	bl	0 <__aeabi_fmul>
    4360:	4601      	mov	r1, r0
    4362:	4658      	mov	r0, fp
    4364:	f7ff fffe 	bl	0 <__aeabi_fadd>
    4368:	9939      	ldr	r1, [sp, #228]	; 0xe4
    436a:	f7ff fffe 	bl	0 <__aeabi_fmul>
    436e:	4651      	mov	r1, sl
    4370:	4683      	mov	fp, r0
    4372:	983e      	ldr	r0, [sp, #248]	; 0xf8
    4374:	f7ff fffe 	bl	0 <__aeabi_fmul>
    4378:	4601      	mov	r1, r0
    437a:	9856      	ldr	r0, [sp, #344]	; 0x158
    437c:	f7ff fffe 	bl	0 <__aeabi_fadd>
    4380:	4649      	mov	r1, r9
    4382:	4682      	mov	sl, r0
    4384:	983f      	ldr	r0, [sp, #252]	; 0xfc
    4386:	f7ff fffe 	bl	0 <__aeabi_fmul>
    438a:	4601      	mov	r1, r0
    438c:	4650      	mov	r0, sl
    438e:	f7ff fffe 	bl	0 <__aeabi_fadd>
    4392:	6a71      	ldr	r1, [r6, #36]	; 0x24
    4394:	4682      	mov	sl, r0
    4396:	983d      	ldr	r0, [sp, #244]	; 0xf4
    4398:	f7ff fffe 	bl	0 <__aeabi_fmul>
    439c:	4601      	mov	r1, r0
    439e:	4650      	mov	r0, sl
    43a0:	f7ff fffe 	bl	0 <__aeabi_fadd>
    43a4:	6ab1      	ldr	r1, [r6, #40]	; 0x28
    43a6:	4681      	mov	r9, r0
    43a8:	9837      	ldr	r0, [sp, #220]	; 0xdc
    43aa:	f7ff fffe 	bl	0 <__aeabi_fmul>
    43ae:	4601      	mov	r1, r0
    43b0:	4648      	mov	r0, r9
    43b2:	f7ff fffe 	bl	0 <__aeabi_fadd>
    43b6:	6af1      	ldr	r1, [r6, #44]	; 0x2c
    43b8:	4682      	mov	sl, r0
    43ba:	9830      	ldr	r0, [sp, #192]	; 0xc0
    43bc:	f7ff fffe 	bl	0 <__aeabi_fmul>
    43c0:	4601      	mov	r1, r0
    43c2:	4650      	mov	r0, sl
    43c4:	f7ff fffe 	bl	0 <__aeabi_fadd>
    43c8:	6b31      	ldr	r1, [r6, #48]	; 0x30
    43ca:	4681      	mov	r9, r0
    43cc:	9836      	ldr	r0, [sp, #216]	; 0xd8
    43ce:	f7ff fffe 	bl	0 <__aeabi_fmul>
    43d2:	4601      	mov	r1, r0
    43d4:	4648      	mov	r0, r9
    43d6:	f7ff fffe 	bl	0 <__aeabi_fadd>
    43da:	4601      	mov	r1, r0
    43dc:	4620      	mov	r0, r4
    43de:	f7ff fffe 	bl	0 <__aeabi_fmul>
    43e2:	4601      	mov	r1, r0
    43e4:	4658      	mov	r0, fp
    43e6:	f7ff fffe 	bl	0 <__aeabi_fadd>
    43ea:	4601      	mov	r1, r0
    43ec:	9842      	ldr	r0, [sp, #264]	; 0x108
    43ee:	f7ff fffe 	bl	0 <__aeabi_fadd>
    43f2:	9b79      	ldr	r3, [sp, #484]	; 0x1e4
    43f4:	6098      	str	r0, [r3, #8]
    43f6:	9941      	ldr	r1, [sp, #260]	; 0x104
    43f8:	6208      	str	r0, [r1, #32]
    43fa:	f8d5 a018 	ldr.w	sl, [r5, #24]
    43fe:	985b      	ldr	r0, [sp, #364]	; 0x16c
    4400:	4651      	mov	r1, sl
    4402:	f7ff fffe 	bl	0 <__aeabi_fmul>
    4406:	f8d5 901c 	ldr.w	r9, [r5, #28]
    440a:	4683      	mov	fp, r0
